(dp1
S'J0534+2200'
p2
(dp3
S'RAS error'
p4
F3.6460579289579956e-07
sS'POL'
p5
F2.1843668253300002
sS'DEC error'
p6
cnumpy.core.multiarray
scalar
p7
(cnumpy
dtype
p8
(S'f8'
I0
I1
tRp9
(I3
S'<'
NNNI-1
I-1
I0
tbS'\x8d\xd1\t\xdfk\x85\x93>'
tRp10
sS'RAS'
p11
F1.4636715261296163
sS'POL error'
p12
F0
sS'INC error'
p13
F0
sS'DEC'
p14
g7
(g9
S'\x08\xb20\xbd#\x97\xd8?'
tRp15
sS'INC'
p16
F1.0850711959599999
ss.