(dp1
S'J1801-1417'
p2
(dp3
S'RAS error'
p4
F3.6460579289579957e-08
sS'POL'
p5
I0
sS'DEC error'
p6
cnumpy.core.multiarray
scalar
p7
(cnumpy
dtype
p8
(S'f8'
I0
I1
tRp9
(I3
S'<'
NNNI-1
I-1
I0
tbS'K\xd92\x8f\x84D\x90>'
tRp10
sS'RAS'
p11
F4.7333908957083644
sS'POL error'
p12
F0.78539816339744828
sS'INC error'
p13
F0.78539816339744828
sS'DEC'
p14
g7
(g9
S'\xc2\xef\xfc\x056\x9f\xce\xbf'
tRp15
sS'INC'
p16
I0
ssS'J1748-2446Z'
p17
(dp18
g4
F0
sg5
I0
sg6
g7
(g9
S'\x00\x00\x00\x00\x00\x00\x00\x00'
tRp19
sg11
F4.6731378633137473
sg12
F0.78539816339744828
sg13
F0.78539816339744828
sg14
g7
(g9
S'\xa5\xa1\xe9\x82\x1b\xf0\xd9\xbf'
tRp20
sg16
I0
ssS'J1618-39'
p21
(dp22
g4
F0.0036460579289579955
sg5
I0
sg6
g7
(g9
S'\x85s\xbf\x1f\x0fk\t?'
tRp23
sg11
F4.2812012201824787
sg12
F0.78539816339744828
sg13
F0.78539816339744828
sg14
g7
(g9
S'\xa2\xe0{i\x90\x0b\x87\xbf'
tRp24
sg16
I0
ssS'J1757-5322'
p25
(dp26
g4
F2.1876347573747972e-08
sg5
I0
sg6
g7
(g9
S'\x11\xc2\xb7~:\x07Z>'
tRp27
sg11
F4.7132708615311119
sg12
F0.78539816339744828
sg13
F0.78539816339744828
sg14
g7
(g9
S'2Q\xf2\xe4Sd\xed\xbf'
tRp28
sg16
I0
ssS'J1748-2446Y'
p29
(dp30
g4
F0
sg5
I0
sg6
g7
(g9
S'\x00\x00\x00\x00\x00\x00\x00\x00'
tRp31
sg11
F4.6731378633137473
sg12
F0.78539816339744828
sg13
F0.78539816339744828
sg14
g7
(g9
S'\xa5\xa1\xe9\x82\x1b\xf0\xd9\xbf'
tRp32
sg16
I0
ssS'J1807-2459B'
p33
(dp34
g4
F3.8648214046954754e-09
sg5
I0
sg6
g7
(g9
S'\xf5dO\x85\xbe\x1fv>'
tRp35
sg11
F4.7574399152740368
sg12
F0.78539816339744828
sg13
F0.78539816339744828
sg14
g7
(g9
S'\x15\x92\xd0l\xb7\xec\xdb\xbf'
tRp36
sg16
I0
ssS'J1807-2459A'
p37
(dp38
g4
F1.1667385372665585e-09
sg5
I0
sg6
g7
(g9
S'$>\xc48\x19\xeb`>'
tRp39
sg11
F4.7574023167600679
sg12
F0.78539816339744828
sg13
F0.78539816339744828
sg14
g7
(g9
S'\xf2@\xa0\xe1\x85\xb1\xd9\xbf'
tRp40
sg16
I0
ssS'J1300+1240'
p41
(dp42
g4
F7.2921158579159917e-09
sg5
I0
sg6
g7
(g9
S'\xe6S\x02\t\xb3\xfc\x18>'
tRp43
sg11
F3.4129710386125738
sg12
F0.78539816339744828
sg13
F0.78539816339744828
sg14
g7
(g9
S'\x1f\x85\x02\x82(U\xcc?'
tRp44
sg16
I0
ssS'J1024-0719'
p45
(dp46
g4
F2.1876347573747975e-09
sg5
I0
sg6
g7
(g9
S'@\x9b,2\x95\xd24>'
tRp47
sg11
F2.7329893845305904
sg12
F0.78539816339744828
sg13
F0.78539816339744828
sg14
g7
(g9
S'\xc6\xf3\x83\xc3n\xd6\xbd\xbf'
tRp48
sg16
I0
ssS'J0218+4232'
p49
(dp50
g4
F1.0208962201082388e-07
sg5
I0
sg6
g7
(g9
S'\xff\xa2U\xe2\xad\x91\x81>'
tRp51
sg11
F0.60425031531358031
sg12
F0.78539816339744828
sg13
F0.78539816339744828
sg14
g7
(g9
S'z\xf1\xa2\x19\xff\xc1\xe7?'
tRp52
sg16
I0
ssS'J1744-1134'
p53
(dp54
g4
F2.9168463431663961e-10
sg5
I0
sg6
g7
(g9
S'\x9a\xe2V[w\xa8\x10>'
tRp55
sg11
F4.6574308797597936
sg12
F0.78539816339744828
sg13
F0.78539816339744828
sg14
g7
(g9
S'\xee\xcb\xc1\x1e=F\xc7\xbf'
tRp56
sg16
I0
ssS'J1955+2908'
p57
(dp58
g4
F2.1876347573747975e-09
sg5
I0
sg6
g7
(g9
S'@\x9b,2\x95\xd2$>'
tRp59
sg11
F5.2304798203423184
sg12
F0.78539816339744828
sg13
F0.78539816339744828
sg14
g7
(g9
S'V\x07\x85<"G\xe0?'
tRp60
sg16
I0
ssS'J1721-2457'
p61
(dp62
g4
F2.1876347573747972e-08
sg5
I0
sg6
g7
(g9
S'\x8d\xd1\t\xdfk\x85\x93>'
tRp63
sg11
F4.5550563614182265
sg12
F0.78539816339744828
sg13
F0.78539816339744828
sg14
g7
(g9
S'\x13\xf8\xedm\xc0\xbe\xd9\xbf'
tRp64
sg16
I0
ssS'J1732-5049'
p65
(dp66
g4
F2.9168463431663967e-09
sg5
I0
sg6
g7
(g9
S'\x94w\x97\x1d\xa4\xe76>'
tRp67
sg11
F4.6062667442894627
sg12
F0.78539816339744828
sg13
F0.78539816339744828
sg14
g7
(g9
S'\x05\xc3\xf2\xf5\x18x\xeb\xbf'
tRp68
sg16
I0
ssS'J1302-6350'
p69
(dp70
g4
F7.2921158579159912e-07
sg5
I0
sg6
g7
(g9
S'K\xd92\x8f\x84D\xa0>'
tRp71
sg11
F3.4249354537404799
sg12
F0.78539816339744828
sg13
F0.78539816339744828
sg14
g7
(g9
S'\xbb\x84\x0eb\n\\\xf1\xbf'
tRp72
sg16
I0
ssS'J1537+1155'
p73
(dp74
g4
F2.1876347573747972e-10
sg5
I0
sg6
g7
(g9
S'==\x13\xb3@R\xf7='
tRp75
sg11
F4.1003538536133526
sg12
F0.78539816339744828
sg13
F0.78539816339744828
sg14
g7
(g9
S'\xb9\x04\xe7u\x14\xa8\xca?'
tRp76
sg16
I0
ssS'J0407+1607'
p77
(dp78
g4
F2.1876347573747973e-07
sg5
I0
sg6
g7
(g9
S'K\xd92\x8f\x84D\xb0>'
tRp79
sg11
F1.0846977856743303
sg12
F0.78539816339744828
sg13
F0.78539816339744828
sg14
g7
(g9
S'\x13\xc0\xc9\xa2\xf0\x01\xd2?'
tRp80
sg16
I0
ssS'J1843-1113'
p81
(dp82
g4
F1.4584231715831983e-08
sg5
I0
sg6
g7
(g9
S'@\x9b,2\x95\xd2t>'
tRp83
sg11
F4.9164365561393772
sg12
F0.78539816339744828
sg13
F0.78539816339744828
sg14
g7
(g9
S'\xdeQ\xf2Y(\x12\xc8\xbf'
tRp84
sg16
I0
ssS'J1455-3330'
p85
(dp86
g4
F7.2921158579159915e-08
sg5
I0
sg6
g7
(g9
S'\x8d\xd1\t\xdfk\x85\x83>'
tRp87
sg11
F3.919363689477124
sg12
F0.78539816339744828
sg13
F0.78539816339744828
sg14
g7
(g9
S'\xe6\x98\xf4a\xec$\xe2\xbf'
tRp88
sg16
I0
ssS'J2010-1323'
p89
(dp90
g4
F1.4584231715831983e-08
sg5
I0
sg6
g7
(g9
S'\xe1\xe8B\xcb\xdf;_>'
tRp91
sg11
F5.2974246232805005
sg12
F0.78539816339744828
sg13
F0.78539816339744828
sg14
g7
(g9
S'E>\xbb\xd3\xb0&\xcc\xbf'
tRp92
sg16
I0
ssS'J0437-4715'
p93
(dp94
g4
F2.1876347573747972e-10
sg5
I0
sg6
g7
(g9
S'\x92\x82\xd2\xf7h\xa7\xe8='
tRp95
sg11
F1.2131078805776401
sg12
F0.78539816339744828
sg13
F0.78539816339744828
sg14
g7
(g9
S'\xb0\x00\xcc\\\xd5\x1b\xea\xbf'
tRp96
sg16
I0
ssS'J0514-4002A'
p97
(dp98
g4
F1.4584231715831983e-08
sg5
I0
sg6
g7
(g9
S'@\x9b,2\x95\xd2D>'
tRp99
sg11
F1.3743226670693953
sg12
F0.78539816339744828
sg13
F0.78539816339744828
sg14
g7
(g9
S'\x13\xf0\xcc\x11cP\xe6\xbf'
tRp100
sg16
I0
ssS'J1748-2446V'
p101
(dp102
g4
F0
sg5
I0
sg6
g7
(g9
S'\x00\x00\x00\x00\x00\x00\x00\x00'
tRp103
sg11
F4.6731378633137473
sg12
F0.78539816339744828
sg13
F0.78539816339744828
sg14
g7
(g9
S'\xa5\xa1\xe9\x82\x1b\xf0\xd9\xbf'
tRp104
sg16
I0
ssS'J1909-3744'
p105
(dp106
g4
F5.8336926863327926e-11
sg5
I0
sg6
g7
(g9
S'\xec\x0f5\x07\\\xfd\xe3='
tRp107
sg11
F5.030643805153395
sg12
F0.78539816339744828
sg13
F0.78539816339744828
sg14
g7
(g9
S'\x08][\xd8\xbd@\xe4\xbf'
tRp108
sg16
I0
ssS'J1748-2446W'
p109
(dp110
g4
F0
sg5
I0
sg6
g7
(g9
S'\x00\x00\x00\x00\x00\x00\x00\x00'
tRp111
sg11
F4.6731378633137473
sg12
F0.78539816339744828
sg13
F0.78539816339744828
sg14
g7
(g9
S'\xa5\xa1\xe9\x82\x1b\xf0\xd9\xbf'
tRp112
sg16
I0
ssS'J1748-2446T'
p113
(dp114
g4
F0
sg5
I0
sg6
g7
(g9
S'\x00\x00\x00\x00\x00\x00\x00\x00'
tRp115
sg11
F4.6731378633137473
sg12
F0.78539816339744828
sg13
F0.78539816339744828
sg14
g7
(g9
S'\xa5\xa1\xe9\x82\x1b\xf0\xd9\xbf'
tRp116
sg16
I0
ssS'J1641+3627D'
p117
(dp118
g4
F0
sg5
I0
sg6
g7
(g9
S'\x00\x00\x00\x00\x00\x00\x00\x00'
tRp119
sg11
F4.3826345517660901
sg12
F0.78539816339744828
sg13
F0.78539816339744828
sg14
g7
(g9
S'\xf5\xbc^\xa5\xfe\\\xe4?'
tRp120
sg16
I0
ssS'J1641+3627E'
p121
(dp122
g4
F0.00065629042721243916
sg5
I0
sg6
g7
(g9
S'eP\xaf\xe7\xd2\xc5??'
tRp123
sg11
F4.3826345517660901
sg12
F0.78539816339744828
sg13
F0.78539816339744828
sg14
g7
(g9
S'\xf5\xbc^\xa5\xfe\\\xe4?'
tRp124
sg16
I0
ssS'J1641+3627B'
p125
(dp126
g4
F0.00065629042721243916
sg5
I0
sg6
g7
(g9
S'eP\xaf\xe7\xd2\xc5??'
tRp127
sg11
F4.3826345517660901
sg12
F0.78539816339744828
sg13
F0.78539816339744828
sg14
g7
(g9
S'\xf5\xbc^\xa5\xfe\\\xe4?'
tRp128
sg16
I0
ssS'J1641+3627C'
p129
(dp130
g4
F0
sg5
I0
sg6
g7
(g9
S'\x00\x00\x00\x00\x00\x00\x00\x00'
tRp131
sg11
F4.3826345517660901
sg12
F0.78539816339744828
sg13
F0.78539816339744828
sg14
g7
(g9
S'\xf5\xbc^\xa5\xfe\\\xe4?'
tRp132
sg16
I0
ssS'J1641+3627A'
p133
(dp134
g4
F2.1876347573747973e-07
sg5
I0
sg6
g7
(g9
S'\x8d\xd1\t\xdfk\x85\x93>'
tRp135
sg11
F4.3826258012270598
sg12
F0.78539816339744828
sg13
F0.78539816339744828
sg14
g7
(g9
S'\xc1\x19~p#\\\xe4?'
tRp136
sg16
I0
ssS'J1748-2446P'
p137
(dp138
g4
F0
sg5
I0
sg6
g7
(g9
S'\x00\x00\x00\x00\x00\x00\x00\x00'
tRp139
sg11
F4.6731378633137473
sg12
F0.78539816339744828
sg13
F0.78539816339744828
sg14
g7
(g9
S'\xa5\xa1\xe9\x82\x1b\xf0\xd9\xbf'
tRp140
sg16
I0
ssS'J1748-2446J'
p141
(dp142
g4
F0
sg5
I0
sg6
g7
(g9
S'\x00\x00\x00\x00\x00\x00\x00\x00'
tRp143
sg11
F4.6731378633137473
sg12
F0.78539816339744828
sg13
F0.78539816339744828
sg14
g7
(g9
S'\xa5\xa1\xe9\x82\x1b\xf0\xd9\xbf'
tRp144
sg16
I0
ssS'J1038+0032'
p145
(dp146
g4
F6.5629042721243912e-07
sg5
I0
sg6
g7
(g9
S'\xefE\xcc\xd6\xc6f\xb8>'
tRp147
sg11
F2.7933859359742539
sg12
F0.78539816339744828
sg13
F0.78539816339744828
sg14
g7
(g9
S'\x0b!\xdf\x1e\x1e\x7f\x83?'
tRp148
sg16
I0
ssS'J2129+1210F'
p149
(dp150
g4
F3.6460579289579956e-07
sg5
I0
sg6
g7
(g9
S'K\xd92\x8f\x84D\xa0>'
tRp151
sg11
F5.6438918905174669
sg12
F0.78539816339744828
sg13
F0.78539816339744828
sg14
g7
(g9
S'\xf2\xf1\x10\xc5\xb1.\xcb?'
tRp152
sg16
I0
ssS'J2129+1210G'
p153
(dp154
g4
F2.1876347573747971e-06
sg5
I0
sg6
g7
(g9
S'\xefE\xcc\xd6\xc6f\xc8>'
tRp155
sg11
F5.6439481856518894
sg12
F0.78539816339744828
sg13
F0.78539816339744828
sg14
g7
(g9
S'03\xb4\x9d\xcd-\xcb?'
tRp156
sg16
I0
ssS'J2129+1210D'
p157
(dp158
g4
F5.1044811005411942e-07
sg5
I0
sg6
g7
(g9
S'\xadM\xf5\x86\xdf%\xa5>'
tRp159
sg11
F5.6439718121072699
sg12
F0.78539816339744828
sg13
F0.78539816339744828
sg14
g7
(g9
S'M6C\xd90.\xcb?'
tRp160
sg16
I0
ssS'J2129+1210E'
p161
(dp162
g4
F2.9168463431663966e-07
sg5
I0
sg6
g7
(g9
S'\x11\xc2\xb7~:\x07\x9a>'
tRp163
sg11
F5.6439654679664732
sg12
F0.78539816339744828
sg13
F0.78539816339744828
sg14
g7
(g9
S'}\xbe\xabe\x9a/\xcb?'
tRp164
sg16
I0
ssS'J2129+1210C'
p165
(dp166
g4
F7.2921158579159917e-09
sg5
I0
sg6
g7
(g9
S'@\x9b,2\x95\xd2T>'
tRp167
sg11
F5.6441854856861378
sg12
F0.78539816339744828
sg13
F0.78539816339744828
sg14
g7
(g9
S'\xa0\x04ZYM4\xcb?'
tRp168
sg16
I0
ssS'J1939+2134'
p169
(dp170
g4
F1.4584231715831981e-10
sg5
I0
sg6
g7
(g9
S'\xec\x0f5\x07\\\xfd\xe3='
tRp171
sg11
F5.1612545044255018
sg12
F0.78539816339744828
sg13
F0.78539816339744828
sg14
g7
(g9
S'\x80:+\xbe\xc9\x1b\xd8?'
tRp172
sg16
I0
ssS'J2229+2643'
p173
(dp174
g4
F1.4584231715831983e-08
sg5
I0
sg6
g7
(g9
S'@\x9b,2\x95\xd2T>'
tRp175
sg11
F5.9059492706411261
sg12
F0.78539816339744828
sg13
F0.78539816339744828
sg14
g7
(g9
S'\xad\xf1\t\xfaX\xdc\xdd?'
tRp176
sg16
I0
ssS'J2140-2310B'
p177
(dp178
g4
F0.0011667385372665586
sg5
I0
sg6
g7
(g9
S'w\x89\xc9\xc2TrU?'
tRp179
sg11
F5.6894546346632149
sg12
F0.78539816339744828
sg13
F0.78539816339744828
sg14
g7
(g9
S'\x1d^\x8f\x13\x91}\xd9\xbf'
tRp180
sg16
I0
ssS'J1952+3252'
p181
(dp182
g4
F7.2921158579159915e-08
sg5
I0
sg6
g7
(g9
S'\x11\xc2\xb7~:\x07j>'
tRp183
sg11
F5.2195657105377755
sg12
F0.78539816339744828
sg13
F0.78539816339744828
sg14
g7
(g9
S'\xc2\x05pl\xcc\\\xe2?'
tRp184
sg16
I0
ssS'J2140-2310A'
p185
(dp186
g4
F3.3543732946413562e-08
sg5
I0
sg6
g7
(g9
S'q\xafo\xe6T?i>'
tRp187
sg11
F5.6894842479457131
sg12
F0.78539816339744828
sg13
F0.78539816339744828
sg14
g7
(g9
S'\xa2\n\xb6\x9al}\xd9\xbf'
tRp188
sg16
I0
ssS'J1804-0735'
p189
(dp190
g4
F1.1667385372665587e-07
sg5
I0
sg6
g7
(g9
S'kU\x1e7\xf8\xe4\xa1>'
tRp191
sg11
F4.7464305843643313
sg12
F0.78539816339744828
sg13
F0.78539816339744828
sg14
g7
(g9
S'y\xf0U\x11\xa9\xa3\xbc\xbf'
tRp192
sg16
I0
ssS'J1853+1303'
p193
(dp194
g4
F5.8336926863327923e-10
sg5
I0
sg6
g7
(g9
S'\x9a\xe2V[w\xa8\x10>'
tRp195
sg11
F4.9613601407881713
sg12
F0.78539816339744828
sg13
F0.78539816339744828
sg14
g7
(g9
S'5W\xfe\xd9k.\xcd?'
tRp196
sg16
I0
ssS'J1045-4509'
p197
(dp198
g4
F3.6460579289579958e-09
sg5
I0
sg6
g7
(g9
S'@\x9b,2\x95\xd2$>'
tRp199
sg11
F2.8257087142312085
sg12
F0.78539816339744828
sg13
F0.78539816339744828
sg14
g7
(g9
S'S=\x9b\x83b\n\xe9\xbf'
tRp200
sg16
I0
ssS'J1701-3006B'
p201
(dp202
g4
F7.2921158579159915e-08
sg5
I0
sg6
g7
(g9
S']\xf8\x94+\x11\xba\x98>'
tRp203
sg11
F4.4680739179198694
sg12
F0.78539816339744828
sg13
F0.78539816339744828
sg14
g7
(g9
S'\xab\xc1\xc9Z\x13\xb1\xe0\xbf'
tRp204
sg16
I0
ssS'J1944+0907'
p205
(dp206
g4
F2.1876347573747975e-09
sg5
I0
sg6
g7
(g9
S'\xe6S\x02\t\xb3\xfc8>'
tRp207
sg11
F5.1809987919152514
sg12
F0.78539816339744828
sg13
F0.78539816339744828
sg14
g7
(g9
S'\\\x07N\x98\x99a\xc4?'
tRp208
sg16
I0
ssS'J0621+1002'
p209
(dp210
g4
F2.1876347573747975e-09
sg5
I0
sg6
g7
(g9
S'@\x9b,2\x95\xd2D>'
tRp211
sg11
F1.6685900506906319
sg12
F0.78539816339744828
sg13
F0.78539816339744828
sg14
g7
(g9
S'\x1a%5&Pp\xc6?'
tRp212
sg16
I0
ssS'J0024-7204P'
p213
(dp214
g4
F0
sg5
I0
sg6
g7
(g9
S'\x00\x00\x00\x00\x00\x00\x00\x00'
tRp215
sg11
F0.10541993132313411
sg12
F0.78539816339744828
sg13
F0.78539816339744828
sg14
g7
(g9
S'\xa8\xd0|\xe3_\x15\xf4\xbf'
tRp216
sg16
I0
ssS'J1312+1810'
p217
(dp218
g4
F0.0014584231715831981
sg5
I0
sg6
g7
(g9
S'\x85s\xbf\x1f\x0fk\xf9>'
tRp219
sg11
F3.4692241194035329
sg12
F0.78539816339744828
sg13
F0.78539816339744828
sg14
g7
(g9
S'^\x08\t\xe1*\xa5u?'
tRp220
sg16
I0
ssS'J1748-2446C'
p221
(dp222
g4
F7.2921158579159912e-07
sg5
I0
sg6
g7
(g9
S'\x9d\x8f\xff\xb2\xa5U\xf4>'
tRp223
sg11
F4.6731189038125169
sg12
F0.78539816339744828
sg13
F0.78539816339744828
sg14
g7
(g9
S'\xa1\xec\xbc\x85\xd2\xf0\xd9\xbf'
tRp224
sg16
I0
ssS'J1804-2717'
p225
(dp226
g4
F5.9795350034911124e-08
sg5
I0
sg6
g7
(g9
S'kU\x1e7\xf8\xe4\xb1>'
tRp227
sg11
F4.7443330655747289
sg12
F0.78539816339744828
sg13
F0.78539816339744828
sg14
g7
(g9
S'Pf\x84\x81G\xd5\xdd\xbf'
tRp228
sg16
I0
ssS'J1453+1902'
p229
(dp230
g4
F7.2921158579159917e-09
sg5
I0
sg6
g7
(g9
S'\xe1\xe8B\xcb\xdf;O>'
tRp231
sg11
F3.9104494497387305
sg12
F0.78539816339744828
sg13
F0.78539816339744828
sg14
g7
(g9
S't\tC\x98\xa4C\xd5?'
tRp232
sg16
I0
ssS'J1701-3006A'
p233
(dp234
g4
F3.5731367703788352e-08
sg5
I0
sg6
g7
(g9
S'\xa8.r\xd8\xe7l\x87>'
tRp235
sg11
F4.4680623759588896
sg12
F0.78539816339744828
sg13
F0.78539816339744828
sg14
g7
(g9
S'^@\xac8\xd3\xb1\xe0\xbf'
tRp236
sg16
I0
ssS'J1911-1114'
p237
(dp238
g4
F1.4584231715831983e-08
sg5
I0
sg6
g7
(g9
S'\x11\xc2\xb7~:\x07z>'
tRp239
sg11
F5.0395296922702784
sg12
F0.78539816339744828
sg13
F0.78539816339744828
sg14
g7
(g9
S'\xcd\xfd\x95\xeb\x02\n\xc8\xbf'
tRp240
sg16
I0
ssS'J1713+0747'
p241
(dp242
g4
F4.3752695147495941e-11
sg5
I0
sg6
g7
(g9
S'\x91j\xf1^%\xa7\xda='
tRp243
sg11
F4.5232652326241949
sg12
F0.78539816339744828
sg13
F0.78539816339744828
sg14
g7
(g9
S'\x93]\x94\xe2Ri\xc1?'
tRp244
sg16
I0
ssS'J0024-7204U'
p245
(dp246
g4
F1.4584231715831983e-08
sg5
I0
sg6
g7
(g9
S'\xed\xbe\xc1F\x86\xbd2>'
tRp247
sg11
F0.10572365524073217
sg12
F0.78539816339744828
sg13
F0.78539816339744828
sg14
g7
(g9
S'3Jo\tm\x16\xf4\xbf'
tRp248
sg16
I0
ssS'J0034-0534'
p249
(dp250
g4
F9.4797506152907877e-08
sg5
I0
sg6
g7
(g9
S'\x11\xc2\xb7~:\x07\x8a>'
tRp251
sg11
F0.15035089384306799
sg12
F0.78539816339744828
sg13
F0.78539816339744828
sg14
g7
(g9
S'B\xad\x07\xaeK\xc3\xb3\xbf'
tRp252
sg16
I0
ssS'J1748-2446G'
p253
(dp254
g4
F0
sg5
I0
sg6
g7
(g9
S'\x00\x00\x00\x00\x00\x00\x00\x00'
tRp255
sg11
F4.6731378633137473
sg12
F0.78539816339744828
sg13
F0.78539816339744828
sg14
g7
(g9
S'\xa5\xa1\xe9\x82\x1b\xf0\xd9\xbf'
tRp256
sg16
I0
ssS'J1701-3006D'
p257
(dp258
g4
F1.0938173786873987e-07
sg5
I0
sg6
g7
(g9
S'\xa4\x0f\xef)\xf0\xb3\x99>'
tRp259
sg11
F4.4681392115252612
sg12
F0.78539816339744828
sg13
F0.78539816339744828
sg14
g7
(g9
S'\xabo\x19JU\xb1\xe0\xbf'
tRp260
sg16
I0
ssS'J2145-0750'
p261
(dp262
g4
F2.1876347573747975e-09
sg5
I0
sg6
g7
(g9
S'\x8e\x0c\xd8\xdf\xd0&=>'
tRp263
sg11
F5.7134066188452994
sg12
F0.78539816339744828
sg13
F0.78539816339744828
sg14
g7
(g9
S'\x86Pt\x06\xb1\x87\xbb\xbf'
tRp264
sg16
I0
ssS'J1911+0101A'
p265
(dp266
g4
F2.9168463431663967e-09
sg5
I0
sg6
g7
(g9
S'@\x9b,2\x95\xd2D>'
tRp267
sg11
F5.0367438757693277
sg12
F0.78539816339744828
sg13
F0.78539816339744828
sg14
g7
(g9
S'\x9c2m@*\x84\x92?'
tRp268
sg16
I0
ssS'J1911+0101B'
p269
(dp270
g4
F2.9168463431663967e-08
sg5
I0
sg6
g7
(g9
S'\x11\xc2\xb7~:\x07z>'
tRp271
sg11
F5.0368520127430196
sg12
F0.78539816339744828
sg13
F0.78539816339744828
sg14
g7
(g9
S"'\xf3B\x9d\xa2k\x92?"
tRp272
sg16
I0
ssS'J1701-3006E'
p273
(dp274
g4
F1.2396596958457183e-07
sg5
I0
sg6
g7
(g9
S'kU\x1e7\xf8\xe4\xa1>'
tRp275
sg11
F4.4681180862656209
sg12
F0.78539816339744828
sg13
F0.78539816339744828
sg14
g7
(g9
S'\xb1,EA)\xb1\xe0\xbf'
tRp276
sg16
I0
ssS'J1905+0154A'
p277
(dp278
g4
F2.9168463431663964e-05
sg5
I0
sg6
g7
(g9
S'xe\x1f\xd6\xc3\xf5\x1b?'
tRp279
sg11
F5.0108065802304047
sg12
F0.78539816339744828
sg13
F0.78539816339744828
sg14
g7
(g9
S'\xb5y\x15m{\x0f\xa1?'
tRp280
sg16
I0
ssS'J1857+0943'
p281
(dp282
g4
F9.4797506152907871e-10
sg5
I0
sg6
g7
(g9
S'\xe6S\x02\t\xb3\xfc\x18>'
tRp283
sg11
F4.9773352513586353
sg12
F0.78539816339744828
sg13
F0.78539816339744828
sg14
g7
(g9
S'B\xe6\xc3]\xcc\xb7\xc5?'
tRp284
sg16
I0
ssS'J1730-2304'
p285
(dp286
g4
F2.1876347573747972e-08
sg5
I0
sg6
g7
(g9
S'\x11\xc2\xb7~:\x07\x9a>'
tRp287
sg11
F4.5956125429951733
sg12
F0.78539816339744828
sg13
F0.78539816339744828
sg14
g7
(g9
S'\xc3\x04K\xf9h\x9b\xd9\xbf'
tRp288
sg16
I0
ssS'J1824-2452F'
p289
(dp290
g4
F0
sg5
I0
sg6
g7
(g9
S'\x00\x00\x00\x00\x00\x00\x00\x00'
tRp291
sg11
F4.8326900874965348
sg12
F0.78539816339744828
sg13
F0.78539816339744828
sg14
g7
(g9
S'g\x8c\xc6`2\xd6\xd9\xbf'
tRp292
sg16
I0
ssS'J0613-0200'
p293
(dp294
g4
F8.0213274437075898e-10
sg5
I0
sg6
g7
(g9
S'\x9a\xe2V[w\xa8 >'
tRp295
sg11
F1.6351822473049218
sg12
F0.78539816339744828
sg13
F0.78539816339744828
sg14
g7
(g9
S'.?/\x95L\xc1\xa1\xbf'
tRp296
sg16
I0
ssS'J1824-2452D'
p297
(dp298
g4
F0
sg5
I0
sg6
g7
(g9
S'\x00\x00\x00\x00\x00\x00\x00\x00'
tRp299
sg11
F4.8326900874965348
sg12
F0.78539816339744828
sg13
F0.78539816339744828
sg14
g7
(g9
S'g\x8c\xc6`2\xd6\xd9\xbf'
tRp300
sg16
I0
ssS'J1824-2452E'
p301
(dp302
g4
F0
sg5
I0
sg6
g7
(g9
S'\x00\x00\x00\x00\x00\x00\x00\x00'
tRp303
sg11
F4.8326900874965348
sg12
F0.78539816339744828
sg13
F0.78539816339744828
sg14
g7
(g9
S'g\x8c\xc6`2\xd6\xd9\xbf'
tRp304
sg16
I0
ssS'J1824-2452B'
p305
(dp306
g4
F0
sg5
I0
sg6
g7
(g9
S'\x00\x00\x00\x00\x00\x00\x00\x00'
tRp307
sg11
F4.8326900874965348
sg12
F0.78539816339744828
sg13
F0.78539816339744828
sg14
g7
(g9
S'g\x8c\xc6`2\xd6\xd9\xbf'
tRp308
sg16
I0
ssS'J1824-2452C'
p309
(dp310
g4
F0
sg5
I0
sg6
g7
(g9
S'\x00\x00\x00\x00\x00\x00\x00\x00'
tRp311
sg11
F4.8326900874965348
sg12
F0.78539816339744828
sg13
F0.78539816339744828
sg14
g7
(g9
S'g\x8c\xc6`2\xd6\xd9\xbf'
tRp312
sg16
I0
ssS'J1824-2452A'
p313
(dp314
g4
F1.4584231715831983e-09
sg5
I0
sg6
g7
(g9
S'\xe1\xe8B\xcb\xdf;_>'
tRp315
sg11
F4.8326316018105082
sg12
F0.78539816339744828
sg13
F0.78539816339744828
sg14
g7
(g9
S'\xd3T\x19\x06:\xd6\xd9\xbf'
tRp316
sg16
I0
ssS'J1748-2446A'
p317
(dp318
g4
F1.4584231715831983e-07
sg5
I0
sg6
g7
(g9
S'\xefE\xcc\xd6\xc6f\xc8>'
tRp319
sg11
F4.6729522789651625
sg12
F0.78539816339744828
sg13
F0.78539816339744828
sg14
g7
(g9
S'\x88\xcb\xa78\xc0\xf0\xd9\xbf'
tRp320
sg16
I0
ssS'J0635+0533'
p321
(dp322
g4
F0.00014584231715831982
sg5
I0
sg6
g7
(g9
S'\xa3\x96\xcfWK\x10#?'
tRp323
sg11
F1.7295440391805148
sg12
F0.78539816339744828
sg13
F0.78539816339744828
sg14
g7
(g9
S'\xde\xca\xb3\xb9\xb0\xcf\xb8?'
tRp324
sg16
I0
ssS'J0537-6910'
p325
(dp326
g4
F8.0213274437075905e-06
sg5
I0
sg6
g7
(g9
S'\xefE\xcc\xd6\xc6f\xc8>'
tRp327
sg11
F1.477923456125803
sg12
F0.78539816339744828
sg13
F0.78539816339744828
sg14
g7
(g9
S'\xbd\x0f\xd9\xe7h8\xf3\xbf'
tRp328
sg16
I0
ssS'J1745-0952'
p329
(dp330
g4
F1.4584231715831983e-08
sg5
I0
sg6
g7
(g9
S'\x8d\xd1\t\xdfk\x85s>'
tRp331
sg11
F4.6603281534077068
sg12
F0.78539816339744828
sg13
F0.78539816339744828
sg14
g7
(g9
S'\xe1\x95\xb4\xfa9%\xc2\xbf'
tRp332
sg16
I0
ssS'J1824-2452G'
p333
(dp334
g4
F0
sg5
I0
sg6
g7
(g9
S'\x00\x00\x00\x00\x00\x00\x00\x00'
tRp335
sg11
F4.8326900874965348
sg12
F0.78539816339744828
sg13
F0.78539816339744828
sg14
g7
(g9
S'g\x8c\xc6`2\xd6\xd9\xbf'
tRp336
sg16
I0
ssS'J1748-2446F'
p337
(dp338
g4
F0
sg5
I0
sg6
g7
(g9
S'\x00\x00\x00\x00\x00\x00\x00\x00'
tRp339
sg11
F4.6731378633137473
sg12
F0.78539816339744828
sg13
F0.78539816339744828
sg14
g7
(g9
S'\xa5\xa1\xe9\x82\x1b\xf0\xd9\xbf'
tRp340
sg16
I0
ssS'J1600-3053'
p341
(dp342
g4
F8.0213274437075898e-10
sg5
I0
sg6
g7
(g9
S'@\x9b,2\x95\xd2$>'
tRp343
sg11
F4.2040436192444295
sg12
F0.78539816339744828
sg13
F0.78539816339744828
sg14
g7
(g9
S'\xc8\xe0\xe3\x9b\x10A\xe0\xbf'
tRp344
sg16
I0
ssS'J0024-7204I'
p345
(dp346
g4
F2.1876347573747972e-08
sg5
I0
sg6
g7
(g9
S'@\x9b,2\x95\xd24>'
tRp347
sg11
F0.10558495190499874
sg12
F0.78539816339744828
sg13
F0.78539816339744828
sg14
g7
(g9
S'}m\x12\xba\xa1\x15\xf4\xbf'
tRp348
sg16
I0
ssS'J1748-2446X'
p349
(dp350
g4
F0
sg5
I0
sg6
g7
(g9
S'\x00\x00\x00\x00\x00\x00\x00\x00'
tRp351
sg11
F4.6731378633137473
sg12
F0.78539816339744828
sg13
F0.78539816339744828
sg14
g7
(g9
S'\xa5\xa1\xe9\x82\x1b\xf0\xd9\xbf'
tRp352
sg16
I0
ssS'J0024-7204J'
p353
(dp354
g4
F2.1876347573747975e-09
sg5
I0
sg6
g7
(g9
S'\x9a\xe2V[w\xa8\x00>'
tRp355
sg11
F0.10496325162935832
sg12
F0.78539816339744828
sg13
F0.78539816339744828
sg14
g7
(g9
S'\xdf\xe2\xa9\x88q\x16\xf4\xbf'
tRp356
sg16
I0
ssS'J0024-7204M'
p357
(dp358
g4
F5.8336926863327933e-08
sg5
I0
sg6
g7
(g9
S'\xe1\xe8B\xcb\xdf;O>'
tRp359
sg11
F0.10460450505155436
sg12
F0.78539816339744828
sg13
F0.78539816339744828
sg14
g7
(g9
S'\xe1#^\x18\x9e\x14\xf4\xbf'
tRp360
sg16
I0
ssS'J0024-7204L'
p361
(dp362
g4
F7.2921158579159915e-08
sg5
I0
sg6
g7
(g9
S'@\x9b,2\x95\xd2T>'
tRp363
sg11
F0.10528145404299227
sg12
F0.78539816339744828
sg13
F0.78539816339744828
sg14
g7
(g9
S'\x82\xd1\x86\x10J\x15\xf4\xbf'
tRp364
sg16
I0
ssS'J0024-7204O'
p365
(dp366
g4
F7.2921158579159917e-09
sg5
I0
sg6
g7
(g9
S'@\x9b,2\x95\xd2$>'
tRp367
sg11
F0.10534563924677366
sg12
F0.78539816339744828
sg13
F0.78539816339744828
sg14
g7
(g9
S'3\xf7\x1f\x1eZ\x15\xf4\xbf'
tRp368
sg16
I0
ssS'J0024-7204N'
p369
(dp370
g4
F2.9168463431663967e-08
sg5
I0
sg6
g7
(g9
S'@\x9b,2\x95\xd2D>'
tRp371
sg11
F0.10567635857727772
sg12
F0.78539816339744828
sg13
F0.78539816339744828
sg14
g7
(g9
S'6\n\x01\x93\xd8\x15\xf4\xbf'
tRp372
sg16
I0
ssS'J1748-2446R'
p373
(dp374
g4
F0
sg5
I0
sg6
g7
(g9
S'\x00\x00\x00\x00\x00\x00\x00\x00'
tRp375
sg11
F4.6731378633137473
sg12
F0.78539816339744828
sg13
F0.78539816339744828
sg14
g7
(g9
S'\xa5\xa1\xe9\x82\x1b\xf0\xd9\xbf'
tRp376
sg16
I0
ssS'J1748-2446S'
p377
(dp378
g4
F0
sg5
I0
sg6
g7
(g9
S'\x00\x00\x00\x00\x00\x00\x00\x00'
tRp379
sg11
F4.6731378633137473
sg12
F0.78539816339744828
sg13
F0.78539816339744828
sg14
g7
(g9
S'\xa5\xa1\xe9\x82\x1b\xf0\xd9\xbf'
tRp380
sg16
I0
ssS'J0024-7204C'
p381
(dp382
g4
F6.5629042721243921e-09
sg5
I0
sg6
g7
(g9
S'\x9a\xe2V[w\xa8 >'
tRp383
sg11
F0.10430300595850456
sg12
F0.78539816339744828
sg13
F0.78539816339744828
sg14
g7
(g9
S'^\x80\xefJ\xcb\x15\xf4\xbf'
tRp384
sg16
I0
ssS'J1748-2446Q'
p385
(dp386
g4
F0
sg5
I0
sg6
g7
(g9
S'\x00\x00\x00\x00\x00\x00\x00\x00'
tRp387
sg11
F4.6731378633137473
sg12
F0.78539816339744828
sg13
F0.78539816339744828
sg14
g7
(g9
S'\xa5\xa1\xe9\x82\x1b\xf0\xd9\xbf'
tRp388
sg16
I0
ssS'J0024-7204E'
p389
(dp390
g4
F7.2921158579159917e-09
sg5
I0
sg6
g7
(g9
S'\x9a\xe2V[w\xa8 >'
tRp391
sg11
F0.10581615573038983
sg12
F0.78539816339744828
sg13
F0.78539816339744828
sg14
g7
(g9
S'\x00\xad\xa0\xff\xd3\x14\xf4\xbf'
tRp392
sg16
I0
ssS'J0024-7204D'
p393
(dp394
g4
F5.1044811005411929e-09
sg5
I0
sg6
g7
(g9
S'\xe6S\x02\t\xb3\xfc\x18>'
tRp395
sg11
F0.10601856590710435
sg12
F0.78539816339744828
sg13
F0.78539816339744828
sg14
g7
(g9
S'K\x8b;\x85\x8c\x15\xf4\xbf'
tRp396
sg16
I0
ssS'J0024-7204G'
p397
(dp398
g4
F2.1876347573747972e-08
sg5
I0
sg6
g7
(g9
S'\x8e\x0c\xd8\xdf\xd0&->'
tRp399
sg11
F0.10558682597877422
sg12
F0.78539816339744828
sg13
F0.78539816339744828
sg14
g7
(g9
S'j\x8fO\x9d\xa1\x15\xf4\xbf'
tRp400
sg16
I0
ssS'J0024-7204F'
p401
(dp402
g4
F7.2921158579159917e-09
sg5
I0
sg6
g7
(g9
S'@\x9b,2\x95\xd2$>'
tRp403
sg11
F0.1052874992070385
sg12
F0.78539816339744828
sg13
F0.78539816339744828
sg14
g7
(g9
S'\x16u\xe4\xc6\x91\x15\xf4\xbf'
tRp404
sg16
I0
ssS'J0024-7204Y'
p405
(dp406
g4
F0
sg5
I0
sg6
g7
(g9
S'\x00\x00\x00\x00\x00\x00\x00\x00'
tRp407
sg11
F0.10541993132313411
sg12
F0.78539816339744828
sg13
F0.78539816339744828
sg14
g7
(g9
S'\xa8\xd0|\xe3_\x15\xf4\xbf'
tRp408
sg16
I0
ssS'J1748-2446K'
p409
(dp410
g4
F0
sg5
I0
sg6
g7
(g9
S'\x00\x00\x00\x00\x00\x00\x00\x00'
tRp411
sg11
F4.6731378633137473
sg12
F0.78539816339744828
sg13
F0.78539816339744828
sg14
g7
(g9
S'\xa5\xa1\xe9\x82\x1b\xf0\xd9\xbf'
tRp412
sg16
I0
ssS'J1748-2446I'
p413
(dp414
g4
F0
sg5
I0
sg6
g7
(g9
S'\x00\x00\x00\x00\x00\x00\x00\x00'
tRp415
sg11
F4.6731378633137473
sg12
F0.78539816339744828
sg13
F0.78539816339744828
sg14
g7
(g9
S'\xa5\xa1\xe9\x82\x1b\xf0\xd9\xbf'
tRp416
sg16
I0
ssS'J1748-2446N'
p417
(dp418
g4
F0
sg5
I0
sg6
g7
(g9
S'\x00\x00\x00\x00\x00\x00\x00\x00'
tRp419
sg11
F4.6731378633137473
sg12
F0.78539816339744828
sg13
F0.78539816339744828
sg14
g7
(g9
S'\xa5\xa1\xe9\x82\x1b\xf0\xd9\xbf'
tRp420
sg16
I0
ssS'J1748-2446O'
p421
(dp422
g4
F0
sg5
I0
sg6
g7
(g9
S'\x00\x00\x00\x00\x00\x00\x00\x00'
tRp423
sg11
F4.6731378633137473
sg12
F0.78539816339744828
sg13
F0.78539816339744828
sg14
g7
(g9
S'\xa5\xa1\xe9\x82\x1b\xf0\xd9\xbf'
tRp424
sg16
I0
ssS'J1748-2446L'
p425
(dp426
g4
F0
sg5
I0
sg6
g7
(g9
S'\x00\x00\x00\x00\x00\x00\x00\x00'
tRp427
sg11
F4.6731378633137473
sg12
F0.78539816339744828
sg13
F0.78539816339744828
sg14
g7
(g9
S'\xa5\xa1\xe9\x82\x1b\xf0\xd9\xbf'
tRp428
sg16
I0
ssS'J1748-2446M'
p429
(dp430
g4
F0
sg5
I0
sg6
g7
(g9
S'\x00\x00\x00\x00\x00\x00\x00\x00'
tRp431
sg11
F4.6731378633137473
sg12
F0.78539816339744828
sg13
F0.78539816339744828
sg14
g7
(g9
S'\xa5\xa1\xe9\x82\x1b\xf0\xd9\xbf'
tRp432
sg16
I0
ssS'J0024-7204Q'
p433
(dp434
g4
F2.9168463431663967e-08
sg5
I0
sg6
g7
(g9
S'@\x9b,2\x95\xd2D>'
tRp435
sg11
F0.10620887262991789
sg12
F0.78539816339744828
sg13
F0.78539816339744828
sg14
g7
(g9
S'\x8d\xab]\x85\xeb\x15\xf4\xbf'
tRp436
sg16
I0
ssS'J1701-3006C'
p437
(dp438
g4
F2.552240550270597e-08
sg5
I0
sg6
g7
(g9
S'\xc6\x8b\xda\xd1cT{>'
tRp439
sg11
F4.4680883723519225
sg12
F0.78539816339744828
sg13
F0.78539816339744828
sg14
g7
(g9
S'\xb6{\xe7\xe8\xa9\xb0\xe0\xbf'
tRp440
sg16
I0
ssS'J0024-7204S'
p441
(dp442
g4
F2.9168463431663967e-08
sg5
I0
sg6
g7
(g9
S'@\x9b,2\x95\xd24>'
tRp443
sg11
F0.10529654143070231
sg12
F0.78539816339744828
sg13
F0.78539816339744828
sg14
g7
(g9
S'n\xf0e#\x94\x15\xf4\xbf'
tRp444
sg16
I0
ssS'J0024-7204R'
p445
(dp446
g4
F0
sg5
I0
sg6
g7
(g9
S'\x00\x00\x00\x00\x00\x00\x00\x00'
tRp447
sg11
F0.10541993132313411
sg12
F0.78539816339744828
sg13
F0.78539816339744828
sg14
g7
(g9
S'\xa8\xd0|\xe3_\x15\xf4\xbf'
tRp448
sg16
I0
ssS'J1701-3006F'
p449
(dp450
g4
F1.0938173786873987e-07
sg5
I0
sg6
g7
(g9
S'K\xd92\x8f\x84D\xa0>'
tRp451
sg11
F4.4680851842388698
sg12
F0.78539816339744828
sg13
F0.78539816339744828
sg14
g7
(g9
S'\xa8\x86Y!\xf7\xb0\xe0\xbf'
tRp452
sg16
I0
ssS'J0024-7204T'
p453
(dp454
g4
F1.4584231715831983e-07
sg5
I0
sg6
g7
(g9
S'\xd8\x07\xe7\x8bB8b>'
tRp455
sg11
F0.10562979841752493
sg12
F0.78539816339744828
sg13
F0.78539816339744828
sg14
g7
(g9
S'\xc8]\x05\x81\xa5\x15\xf4\xbf'
tRp456
sg16
I0
ssS'J0024-7204W'
p457
(dp458
g4
F7.2921158579159912e-07
sg5
I0
sg6
g7
(g9
S'\x8d\xd1\t\xdfk\x85\x93>'
tRp459
sg11
F0.10544909978656576
sg12
F0.78539816339744828
sg13
F0.78539816339744828
sg14
g7
(g9
S'\xc2\xf1\x910r\x15\xf4\xbf'
tRp460
sg16
I0
ssS'J0024-7204V'
p461
(dp462
g4
F0
sg5
I0
sg6
g7
(g9
S'\x00\x00\x00\x00\x00\x00\x00\x00'
tRp463
sg11
F0.10541993132313411
sg12
F0.78539816339744828
sg13
F0.78539816339744828
sg14
g7
(g9
S'\xa8\xd0|\xe3_\x15\xf4\xbf'
tRp464
sg16
I0
ssS'J1910+1256'
p465
(dp466
g4
F5.8336926863327923e-10
sg5
I0
sg6
g7
(g9
S'\xe6S\x02\t\xb3\xfc\x18>'
tRp467
sg11
F5.0322673850506447
sg12
F0.78539816339744828
sg13
F0.78539816339744828
sg14
g7
(g9
S'@q$\x8e\xbf\xe8\xcc?'
tRp468
sg16
I0
ssS'J1824-2452J'
p469
(dp470
g4
F0
sg5
I0
sg6
g7
(g9
S'\x00\x00\x00\x00\x00\x00\x00\x00'
tRp471
sg11
F4.8326900874965348
sg12
F0.78539816339744828
sg13
F0.78539816339744828
sg14
g7
(g9
S'g\x8c\xc6`2\xd6\xd9\xbf'
tRp472
sg16
I0
ssS'J2322+2057'
p473
(dp474
g4
F5.1044811005411929e-09
sg5
I0
sg6
g7
(g9
S'@\x9b,2\x95\xd2D>'
tRp475
sg11
F6.1357580814540693
sg12
F0.78539816339744828
sg13
F0.78539816339744828
sg14
g7
(g9
S'kH\xf0?\xfcf\xd7?'
tRp476
sg16
I0
ssS'J1748-2446D'
p477
(dp478
g4
F0
sg5
I0
sg6
g7
(g9
S'\x00\x00\x00\x00\x00\x00\x00\x00'
tRp479
sg11
F4.6731378633137473
sg12
F0.78539816339744828
sg13
F0.78539816339744828
sg14
g7
(g9
S'\xa5\xa1\xe9\x82\x1b\xf0\xd9\xbf'
tRp480
sg16
I0
ssS'J0534+2200'
p481
(dp482
g4
F3.6460579289579956e-07
sg5
F2.16420827
sg6
g7
(g9
S'\x8d\xd1\t\xdfk\x85\x93>'
tRp483
sg11
F1.4636715261296163
sg12
F0.00175
sg13
F0.019198621799999999
sg14
g7
(g9
S'\x08\xb20\xbd#\x97\xd8?'
tRp484
sg16
F1.06988683
ssS'J1953+1846A'
p485
(dp486
g4
F0
sg5
I0
sg6
g7
(g9
S'\x00\x00\x00\x00\x00\x00\x00\x00'
tRp487
sg11
F5.2230509043909077
sg12
F0.78539816339744828
sg13
F0.78539816339744828
sg14
g7
(g9
S'\x12">\xe6\xc0\xf9\xd4?'
tRp488
sg16
I0
ssS'J1905+0400'
p489
(dp490
g4
F1.1667385372665585e-09
sg5
I0
sg6
g7
(g9
S'\xe6S\x02\t\xb3\xfc(>'
tRp491
sg11
F5.0117453260984197
sg12
F0.78539816339744828
sg13
F0.78539816339744828
sg14
g7
(g9
S'71\x8f\xd6\xbb\xe2\xb1?'
tRp492
sg16
I0
ssS'J1802-2124'
p493
(dp494
g4
F6.5629042721243925e-10
sg5
I0
sg6
g7
(g9
S'\xe1\xe8B\xcb\xdf;O>'
tRp495
sg11
F4.7344306913426681
sg12
F0.78539816339744828
sg13
F0.78539816339744828
sg14
g7
(g9
S'\xc8h\x95\xbd`\x02\xd7\xbf'
tRp496
sg16
I0
ssS'J1640+2224'
p497
(dp498
g4
F7.2921158579159917e-10
sg5
I0
sg6
g7
(g9
S'\xe6S\x02\t\xb3\xfc\x18>'
tRp499
sg11
F4.3764903831733228
sg12
F0.78539816339744828
sg13
F0.78539816339744828
sg14
g7
(g9
S'>s\x81\xb4\x18\x06\xd9?'
tRp500
sg16
I0
ssS'J1748-2446E'
p501
(dp502
g4
F0
sg5
I0
sg6
g7
(g9
S'\x00\x00\x00\x00\x00\x00\x00\x00'
tRp503
sg11
F4.6731378633137473
sg12
F0.78539816339744828
sg13
F0.78539816339744828
sg14
g7
(g9
S'\xa5\xa1\xe9\x82\x1b\xf0\xd9\xbf'
tRp504
sg16
I0
ssS'J1629-6902'
p505
(dp506
g4
F2.9168463431663967e-08
sg5
I0
sg6
g7
(g9
S'\xe1\xe8B\xcb\xdf;O>'
tRp507
sg11
F4.3277811124007837
sg12
F0.78539816339744828
sg13
F0.78539816339744828
sg14
g7
(g9
S'Z\x84p\xdboA\xf3\xbf'
tRp508
sg16
I0
ssS'J2317+1439'
p509
(dp510
g4
F5.1044811005411929e-09
sg5
I0
sg6
g7
(g9
S'@\x9b,2\x95\xd2D>'
tRp511
sg11
F6.1129251016188455
sg12
F0.78539816339744828
sg13
F0.78539816339744828
sg14
g7
(g9
S'I,\xef\x84\xb7_\xd0?'
tRp512
sg16
I0
ssS'J1810-2005'
p513
(dp514
g4
F4.3752695147495945e-08
sg5
I0
sg6
g7
(g9
S'\xcf\xc9\xe0.S\xc6\xa6>'
tRp515
sg11
F4.773345528771844
sg12
F0.78539816339744828
sg13
F0.78539816339744828
sg14
g7
(g9
S'T\x92\x05\xc2\x9b>\xd6\xbf'
tRp516
sg16
I0
ssS'J0737-3039A'
p517
(dp518
g4
F1.8959501230581574e-09
sg5
I0
sg6
g7
(g9
S'\x9a\xe2V[w\xa8\x00>'
tRp519
sg11
F2.0032352623293948
sg12
F0.78539816339744828
sg13
F0.78539816339744828
sg14
g7
(g9
S'QP\xb6\xd4\xc4b\xe0\xbf'
tRp520
sg16
I0
ssS'J1748-2446U'
p521
(dp522
g4
F0
sg5
I0
sg6
g7
(g9
S'\x00\x00\x00\x00\x00\x00\x00\x00'
tRp523
sg11
F4.6731378633137473
sg12
F0.78539816339744828
sg13
F0.78539816339744828
sg14
g7
(g9
S'\xa5\xa1\xe9\x82\x1b\xf0\xd9\xbf'
tRp524
sg16
I0
ssS'J1342+2822A'
p525
(dp526
g4
F0
sg5
I0
sg6
g7
(g9
S'\x00\x00\x00\x00\x00\x00\x00\x00'
tRp527
sg11
F3.5972736738685374
sg12
F0.78539816339744828
sg13
F0.78539816339744828
sg14
g7
(g9
S'\xd3\xe8)\xef\x1f\xb2\xdf?'
tRp528
sg16
I0
ssS'J1342+2822B'
p529
(dp530
g4
F7.2921158579159917e-09
sg5
I0
sg6
g7
(g9
S'@\x9b,2\x95\xd2D>'
tRp531
sg11
F3.5972800253014494
sg12
F0.78539816339744828
sg13
F0.78539816339744828
sg14
g7
(g9
S'\xf7\x8bVz\xc5\xb2\xdf?'
tRp532
sg16
I0
ssS'J1342+2822C'
p533
(dp534
g4
F0
sg5
I0
sg6
g7
(g9
S'\x00\x00\x00\x00\x00\x00\x00\x00'
tRp535
sg11
F3.5972736738685374
sg12
F0.78539816339744828
sg13
F0.78539816339744828
sg14
g7
(g9
S'\xd3\xe8)\xef\x1f\xb2\xdf?'
tRp536
sg16
I0
ssS'J1342+2822D'
p537
(dp538
g4
F5.1044811005411937e-05
sg5
I0
sg6
g7
(g9
S'\x9d\x8f\xff\xb2\xa5U\x14?'
tRp539
sg11
F3.5972153369416739
sg12
F0.78539816339744828
sg13
F0.78539816339744828
sg14
g7
(g9
S'\xd1\xb4\xc0Eq\xb2\xdf?'
tRp540
sg16
I0
ssS'J2019+2425'
p541
(dp542
g4
F2.1876347573747975e-09
sg5
I0
sg6
g7
(g9
S'@\x9b,2\x95\xd2$>'
tRp543
sg11
F5.335783296575201
sg12
F0.78539816339744828
sg13
F0.78539816339744828
sg14
g7
(g9
S'\xad\xfd\x8f\xfcFG\xdb?'
tRp544
sg16
I0
ssS'J1738+0333'
p545
(dp546
g4
F3.6460579289579958e-09
sg5
I0
sg6
g7
(g9
S'@\x9b,2\x95\xd2D>'
tRp547
sg11
F4.6329702034820759
sg12
F0.78539816339744828
sg13
F0.78539816339744828
sg14
g7
(g9
S'hO5\xa0\x00\xc0\xaf?'
tRp548
sg16
I0
ssS'J0900-3144'
p549
(dp550
g4
F9.4797506152907871e-09
sg5
I0
sg6
g7
(g9
S'\xe1\xe8B\xcb\xdf;O>'
tRp551
sg11
F2.3658506883173525
sg12
F0.78539816339744828
sg13
F0.78539816339744828
sg14
g7
(g9
S'\x1a\r\xce\x9b8\xe6\xe0\xbf'
tRp552
sg16
I0
ssS'J1603-7202'
p553
(dp554
g4
F2.9168463431663967e-09
sg5
I0
sg6
g7
(g9
S'\xe6S\x02\t\xb3\xfc\x18>'
tRp555
sg11
F4.2159863550577326
sg12
F0.78539816339744828
sg13
F0.78539816339744828
sg14
g7
(g9
S"\x9a\x1d\xfb2'\x18\xf4\xbf"
tRp556
sg16
I0
ssS'J1643-1224'
p557
(dp558
g4
F5.8336926863327933e-09
sg5
I0
sg6
g7
(g9
S'\x11\xc2\xb7~:\x07Z>'
tRp559
sg11
F4.3911776621847416
sg12
F0.78539816339744828
sg13
F0.78539816339744828
sg14
g7
(g9
S'q\xe7\xfb\xb7\xd1\xe0\xc9\xbf'
tRp560
sg16
I0
ssS'J1709+2313'
p561
(dp562
g4
F4.3752695147495946e-07
sg5
I0
sg6
g7
(g9
S'\x11\xc2\xb7~:\x07j>'
tRp563
sg11
F4.5025746900278234
sg12
F0.78539816339744828
sg13
F0.78539816339744828
sg14
g7
(g9
S'\xc5\xddz\xcf \xf1\xd9?'
tRp564
sg16
I0
ssS'J1157-5112'
p565
(dp566
g4
F7.2921158579159915e-08
sg5
I0
sg6
g7
(g9
S'\x8d\xd1\t\xdfk\x85\x83>'
tRp567
sg11
F3.1376637162564167
sg12
F0.78539816339744828
sg13
F0.78539816339744828
sg14
g7
(g9
S'N,+W\x05]\xec\xbf'
tRp568
sg16
I0
ssS'J1614-23'
p569
(dp570
g4
F0
sg5
I0
sg6
g7
(g9
S'\x00\x00\x00\x00\x00\x00\x00\x00'
tRp571
sg11
F0.071025208456101746
sg12
F0.78539816339744828
sg13
F0.78539816339744828
sg14
g7
(g9
S'1*\xdb +\x1b{\xbf'
tRp572
sg16
I0
ssS'J1841+0130'
p573
(dp574
g4
F5.8336926863327932e-07
sg5
I0
sg6
g7
(g9
S'\xefE\xcc\xd6\xc6f\xb8>'
tRp575
sg11
F4.9059722787318201
sg12
F0.78539816339744828
sg13
F0.78539816339744828
sg14
g7
(g9
S'\xf8\xfc\x80jd\xe4\x9a?'
tRp576
sg16
I0
ssS'J1803-30'
p577
(dp578
g4
F0
sg5
I0
sg6
g7
(g9
S'\x00\x00\x00\x00\x00\x00\x00\x00'
tRp579
sg11
F4.7409034959813603
sg12
F0.78539816339744828
sg13
F0.78539816339744828
sg14
g7
(g9
S'\x80\xcc\xb1\xcfy\xbc\xe0\xbf'
tRp580
sg16
I0
ssS'J0751+1807'
p581
(dp582
g4
F6.8545889064410309e-09
sg5
I0
sg6
g7
(g9
S'ccTi\xe4zb>'
tRp583
sg11
F2.0614196834130145
sg12
F0.78539816339744828
sg13
F0.78539816339744828
sg14
g7
(g9
S'c\x89\x10\xf4\x9c?\xd4?'
tRp584
sg16
I0
ssS'J2124-3358'
p585
(dp586
g4
F2.1876347573747975e-09
sg5
I0
sg6
g7
(g9
S'\x8e\x0c\xd8\xdf\xd0&->'
tRp587
sg11
F5.6210439027785961
sg12
F0.78539816339744828
sg13
F0.78539816339744828
sg14
g7
(g9
S'\x89\xbd\x9d\x91D\xe2\xe1\xbf'
tRp588
sg16
I0
ssS'J1918-0642'
p589
(dp590
g4
F9.4797506152907871e-10
sg5
I0
sg6
g7
(g9
S'\xe6S\x02\t\xb3\xfc(>'
tRp591
sg11
F5.0700648856210933
sg12
F0.78539816339744828
sg13
F0.78539816339744828
sg14
g7
(g9
S'\xb1w\xa9\xd8)\xa3\xb7\xbf'
tRp592
sg16
I0
ssS'J1518+0204E'
p593
(dp594
g4
F0
sg5
I0
sg6
g7
(g9
S'\x00\x00\x00\x00\x00\x00\x00\x00'
tRp595
sg11
F4.0189767339318196
sg12
F0.78539816339744828
sg13
F0.78539816339744828
sg14
g7
(g9
S'#\x89e9\xa4\x9c\xa2?'
tRp596
sg16
I0
ssS'J1518+0204D'
p597
(dp598
g4
F0
sg5
I0
sg6
g7
(g9
S'\x00\x00\x00\x00\x00\x00\x00\x00'
tRp599
sg11
F4.0189767339318196
sg12
F0.78539816339744828
sg13
F0.78539816339744828
sg14
g7
(g9
S'#\x89e9\xa4\x9c\xa2?'
tRp600
sg16
I0
ssS'J1518+0204C'
p601
(dp602
g4
F0
sg5
I0
sg6
g7
(g9
S'\x00\x00\x00\x00\x00\x00\x00\x00'
tRp603
sg11
F4.0189767339318196
sg12
F0.78539816339744828
sg13
F0.78539816339744828
sg14
g7
(g9
S'#\x89e9\xa4\x9c\xa2?'
tRp604
sg16
I0
ssS'J1518+0204B'
p605
(dp606
g4
F2.1876347573747973e-07
sg5
I0
sg6
g7
(g9
S'K\xd92\x8f\x84D\x90>'
tRp607
sg11
F4.0187913683467107
sg12
F0.78539816339744828
sg13
F0.78539816339744828
sg14
g7
(g9
S'#u\xa8.\xbe\xa7\xa2?'
tRp608
sg16
I0
ssS'J1518+0204A'
p609
(dp610
g4
F4.3752695147495945e-08
sg5
I0
sg6
g7
(g9
S'\x8d\xd1\t\xdfk\x85\x83>'
tRp611
sg11
F4.0189269725332046
sg12
F0.78539816339744828
sg13
F0.78539816339744828
sg14
g7
(g9
S'U\xd4hPk\xaf\xa2?'
tRp612
sg16
I0
ssS'J0711-6830'
p613
(dp614
g4
F1.0938173786873986e-08
sg5
I0
sg6
g7
(g9
S'\x8e\x0c\xd8\xdf\xd0&->'
tRp615
sg11
F1.8896953682887456
sg12
F0.78539816339744828
sg13
F0.78539816339744828
sg14
g7
(g9
S'\x00\xcam\x85\x8a\xd8\xf2\xbf'
tRp616
sg16
I0
ssS'J1012+5307'
p617
(dp618
g4
F2.1876347573747975e-09
sg5
I0
sg6
g7
(g9
S'\x9a\xe2V[w\xa8 >'
tRp619
sg11
F2.6801029671663401
sg12
F0.78539816339744828
sg13
F0.78539816339744828
sg14
g7
(g9
S'g\xba\xeb\x8f\x95\xaa\xed?'
tRp620
sg16
I0
ssS'J1216-6410'
p621
(dp622
g4
F6.5629042721243914e-08
sg5
I0
sg6
g7
(g9
S'@\x9b,2\x95\xd2d>'
tRp623
sg11
F3.2207335749912094
sg12
F0.78539816339744828
sg13
F0.78539816339744828
sg14
g7
(g9
S'Wmh\x8c-\xd3\xf1\xbf'
tRp624
sg16
I0
ssS'J1823-3021A'
p625
(dp626
g4
F2.6251617088497568e-08
sg5
I0
sg6
g7
(g9
S'xU\xfd$\x8d\xa1\x8c>'
tRp627
sg11
F4.828874634445409
sg12
F0.78539816339744828
sg13
F0.78539816339744828
sg14
g7
(g9
S'\x06\xf6\xe5v\xaf\x8d\xe0\xbf'
tRp628
sg16
I0
ssS'J1125-6014'
p629
(dp630
g4
F2.9168463431663967e-08
sg5
I0
sg6
g7
(g9
S'@\x9b,2\x95\xd2T>'
tRp631
sg11
F3.0010861781378964
sg12
F0.78539816339744828
sg13
F0.78539816339744828
sg14
g7
(g9
S'\xcf\xeb\x85^\x82\xb0\xf0\xbf'
tRp632
sg16
I0
ssS'J1910-5959C'
p633
(dp634
g4
F2.9168463431663967e-08
sg5
I0
sg6
g7
(g9
S'@\x9b,2\x95\xd2T>'
tRp635
sg11
F5.0363403030969227
sg12
F0.78539816339744828
sg13
F0.78539816339744828
sg14
g7
(g9
S'\xd9c\xe4\xb9"\xc0\xf0\xbf'
tRp636
sg16
I0
ssS'J2051-0827'
p637
(dp638
g4
F7.2921158579159917e-09
sg5
I0
sg6
g7
(g9
S'\x11\xc2\xb7~:\x07Z>'
tRp639
sg11
F5.474010128997886
sg12
F0.78539816339744828
sg13
F0.78539816339744828
sg14
g7
(g9
S'\x7f\xc3P\x92\xe9\xd7\xc0\xbf'
tRp640
sg16
I0
ssS'J1740-5340A'
p641
(dp642
g4
F2.9168463431663966e-07
sg5
I0
sg6
g7
(g9
S'K\xd92\x8f\x84D\xa0>'
tRp643
sg11
F4.6410371671744564
sg12
F0.78539816339744828
sg13
F0.78539816339744828
sg14
g7
(g9
S'\xf19\xa5\xac\xdb8\xed\xbf'
tRp644
sg16
I0
ssS'J1911+1347'
p645
(dp646
g4
F2.1876347573747972e-08
sg5
I0
sg6
g7
(g9
S'\xd8\x07\xe7\x8bB8b>'
tRp647
sg11
F5.0399608021597988
sg12
F0.78539816339744828
sg13
F0.78539816339744828
sg14
g7
(g9
S'y\x1dd)I\xd0\xce?'
tRp648
sg16
I0
ssS'J1435-6100'
p649
(dp650
g4
F3.6460579289579957e-08
sg5
I0
sg6
g7
(g9
S'\xd8\x07\xe7\x8bB8b>'
tRp651
sg11
F3.8298394112778258
sg12
F0.78539816339744828
sg13
F0.78539816339744828
sg14
g7
(g9
S'\xab4\x17\xb2\xa8\x07\xf1\xbf'
tRp652
sg16
I0
ssS'J1829+2456'
p653
(dp654
g4
F1.4584231715831983e-08
sg5
I0
sg6
g7
(g9
S'\xe1\xe8B\xcb\xdf;O>'
tRp655
sg11
F4.8547018350775328
sg12
F0.78539816339744828
sg13
F0.78539816339744828
sg14
g7
(g9
S'\xc0z\xa0\x04@\xdb\xdb?'
tRp656
sg16
I0
ssS'J1748-2446ae'
p657
(dp658
g4
F0
sg5
I0
sg6
g7
(g9
S'\x00\x00\x00\x00\x00\x00\x00\x00'
tRp659
sg11
F4.6731378633137473
sg12
F0.78539816339744828
sg13
F0.78539816339744828
sg14
g7
(g9
S'\xa5\xa1\xe9\x82\x1b\xf0\xd9\xbf'
tRp660
sg16
I0
ssS'J1420-5625'
p661
(dp662
g4
F2.1876347573747973e-07
sg5
I0
sg6
g7
(g9
S'\x8d\xd1\t\xdfk\x85\x83>'
tRp663
sg11
F3.7629550672722205
sg12
F0.78539816339744828
sg13
F0.78539816339744828
sg14
g7
(g9
S'\xfaoQ}\xf9\x08\xef\xbf'
tRp664
sg16
I0
ssS'J1751-2857'
p665
(dp666
g4
F1.4584231715831983e-08
sg5
I0
sg6
g7
(g9
S'\x8d\xd1\t\xdfk\x85\x83>'
tRp667
sg11
F4.688297916958299
sg12
F0.78539816339744828
sg13
F0.78539816339744828
sg14
g7
(g9
S'\x96A\xd4\xdba3\xde\xbf'
tRp668
sg16
I0
ssS'J1454-5846'
p669
(dp670
g4
F2.1876347573747973e-07
sg5
I0
sg6
g7
(g9
S'\x8d\xd1\t\xdfk\x85\x83>'
tRp671
sg11
F3.9122863701839194
sg12
F0.78539816339744828
sg13
F0.78539816339744828
sg14
g7
(g9
S'\xbc\x07\xe5\x1e\xb1\xf5\xef\xbf'
tRp672
sg16
I0
ssS'J1910-5959E'
p673
(dp674
g4
F4.3752695147495945e-08
sg5
I0
sg6
g7
(g9
S'\xd8\x07\xe7\x8bB8b>'
tRp675
sg11
F5.035363305414279
sg12
F0.78539816339744828
sg13
F0.78539816339744828
sg14
g7
(g9
S'\xb5v\xc4k~3\xf0\xbf'
tRp676
sg16
I0
ssS'J1910-5959D'
p677
(dp678
g4
F3.6460579289579957e-08
sg5
I0
sg6
g7
(g9
S'\x11\xc2\xb7~:\x07Z>'
tRp679
sg11
F5.0353821992864667
sg12
F0.78539816339744828
sg13
F0.78539816339744828
sg14
g7
(g9
S'(\xe9`-m3\xf0\xbf'
tRp680
sg16
I0
ssS'J1748-2446ah'
p681
(dp682
g4
F0
sg5
I0
sg6
g7
(g9
S'\x00\x00\x00\x00\x00\x00\x00\x00'
tRp683
sg11
F4.6731378633137473
sg12
F0.78539816339744828
sg13
F0.78539816339744828
sg14
g7
(g9
S'\xa5\xa1\xe9\x82\x1b\xf0\xd9\xbf'
tRp684
sg16
I0
ssS'J1910-5959B'
p685
(dp686
g4
F3.6460579289579957e-08
sg5
I0
sg6
g7
(g9
S'\xe1\xe8B\xcb\xdf;_>'
tRp687
sg11
F5.0353558966245675
sg12
F0.78539816339744828
sg13
F0.78539816339744828
sg14
g7
(g9
S'\xd9^L\xa7\x843\xf0\xbf'
tRp688
sg16
I0
ssS'J1910-5959A'
p689
(dp690
g4
F2.1876347573747975e-09
sg5
I0
sg6
g7
(g9
S'\xe6S\x02\t\xb3\xfc\x18>'
tRp691
sg11
F5.0390530008229533
sg12
F0.78539816339744828
sg13
F0.78539816339744828
sg14
g7
(g9
S'\xa0Y\xc5H14\xf0\xbf'
tRp692
sg16
I0
ssS'J1748-2446ad'
p693
(dp694
g4
F0
sg5
I0
sg6
g7
(g9
S'\x00\x00\x00\x00\x00\x00\x00\x00'
tRp695
sg11
F4.6731378633137473
sg12
F0.78539816339744828
sg13
F0.78539816339744828
sg14
g7
(g9
S'\xa5\xa1\xe9\x82\x1b\xf0\xd9\xbf'
tRp696
sg16
I0
ssS'J1518+4904'
p697
(dp698
g4
F1.1667385372665585e-09
sg5
I0
sg6
g7
(g9
S'\x91j\xf1^%\xa7\n>'
tRp699
sg11
F4.0177224232084763
sg12
F0.78539816339744828
sg13
F0.78539816339744828
sg14
g7
(g9
S'|\xee\x08\x8c\xc8h\xeb?'
tRp700
sg16
I0
ssS'J1748-2446af'
p701
(dp702
g4
F0
sg5
I0
sg6
g7
(g9
S'\x00\x00\x00\x00\x00\x00\x00\x00'
tRp703
sg11
F4.6731378633137473
sg12
F0.78539816339744828
sg13
F0.78539816339744828
sg14
g7
(g9
S'\xa5\xa1\xe9\x82\x1b\xf0\xd9\xbf'
tRp704
sg16
I0
ssS'J1748-2446ag'
p705
(dp706
g4
F0
sg5
I0
sg6
g7
(g9
S'\x00\x00\x00\x00\x00\x00\x00\x00'
tRp707
sg11
F4.6731378633137473
sg12
F0.78539816339744828
sg13
F0.78539816339744828
sg14
g7
(g9
S'\xa5\xa1\xe9\x82\x1b\xf0\xd9\xbf'
tRp708
sg16
I0
ssS'J1959+2048'
p709
(dp710
g4
F3.6460579289579958e-09
sg5
I0
sg6
g7
(g9
S'\xe6S\x02\t\xb3\xfc(>'
tRp711
sg11
F5.2486294504351809
sg12
F0.78539816339744828
sg13
F0.78539816339744828
sg14
g7
(g9
S'\x81\xca\xdbS\x0f=\xd7?'
tRp712
sg16
I0
ssS'J1748-2446aa'
p713
(dp714
g4
F0
sg5
I0
sg6
g7
(g9
S'\x00\x00\x00\x00\x00\x00\x00\x00'
tRp715
sg11
F4.6731378633137473
sg12
F0.78539816339744828
sg13
F0.78539816339744828
sg14
g7
(g9
S'\xa5\xa1\xe9\x82\x1b\xf0\xd9\xbf'
tRp716
sg16
I0
ssS'J1748-2446ab'
p717
(dp718
g4
F0
sg5
I0
sg6
g7
(g9
S'\x00\x00\x00\x00\x00\x00\x00\x00'
tRp719
sg11
F4.6731378633137473
sg12
F0.78539816339744828
sg13
F0.78539816339744828
sg14
g7
(g9
S'\xa5\xa1\xe9\x82\x1b\xf0\xd9\xbf'
tRp720
sg16
I0
ssS'J1748-2446ac'
p721
(dp722
g4
F0
sg5
I0
sg6
g7
(g9
S'\x00\x00\x00\x00\x00\x00\x00\x00'
tRp723
sg11
F4.6731378633137473
sg12
F0.78539816339744828
sg13
F0.78539816339744828
sg14
g7
(g9
S'\xa5\xa1\xe9\x82\x1b\xf0\xd9\xbf'
tRp724
sg16
I0
ss.