(dp1
S'J1801-1417'
p2
(dp3
S'RAS error'
p4
F3.6460579289579957e-08
sS'FR0 error'
p5
S'1.3e-10'
p6
sS'DEC error'
p7
cnumpy.core.multiarray
scalar
p8
(cnumpy
dtype
p9
(S'f8'
I0
I1
tRp10
(I3
S'<'
NNNI-1
I-1
I0
tbS'K\xd92\x8f\x84D\x90>'
tRp11
sS'POL'
p12
I0
sS'FR0'
p13
S'275.85471333795'
p14
sS'RAS'
p15
F4.7333908957083644
sS'POL error'
p16
F0.78539816339744828
sS'INC error'
p17
F0.78539816339744828
sS'DEC'
p18
g8
(g10
S'\xc2\xef\xfc\x056\x9f\xce\xbf'
tRp19
sS'INC'
p20
I0
ssS'J1748-2446Z'
p21
(dp22
g4
F0
sg5
S'0'
sg7
g8
(g10
S'\x00\x00\x00\x00\x00\x00\x00\x00'
tRp23
sg12
I0
sg13
S'406.076529'
p24
sg15
F4.6731378633137473
sg16
F0.78539816339744828
sg17
F0.78539816339744828
sg18
g8
(g10
S'\xa5\xa1\xe9\x82\x1b\xf0\xd9\xbf'
tRp25
sg20
I0
ssS'J1618-39'
p26
(dp27
g4
F0.0036460579289579955
sg5
S'4.0e-05'
p28
sg7
g8
(g10
S'\x85s\xbf\x1f\x0fk\t?'
tRp29
sg12
I0
sg13
S'83.42153'
p30
sg15
F4.2812012201824787
sg16
F0.78539816339744828
sg17
F0.78539816339744828
sg18
g8
(g10
S'\xa2\xe0{i\x90\x0b\x87\xbf'
tRp31
sg20
I0
ssS'J1757-5322'
p32
(dp33
g4
F2.1876347573747972e-08
sg5
S'6.0e-11'
p34
sg7
g8
(g10
S'\x11\xc2\xb7~:\x07Z>'
tRp35
sg12
I0
sg13
S'112.74006440127'
p36
sg15
F4.7132708615311119
sg16
F0.78539816339744828
sg17
F0.78539816339744828
sg18
g8
(g10
S'2Q\xf2\xe4Sd\xed\xbf'
tRp37
sg20
I0
ssS'J1748-2446Y'
p38
(dp39
g4
F0
sg5
S'0'
sg7
g8
(g10
S'\x00\x00\x00\x00\x00\x00\x00\x00'
tRp40
sg12
I0
sg13
S'488.243106'
p41
sg15
F4.6731378633137473
sg16
F0.78539816339744828
sg17
F0.78539816339744828
sg18
g8
(g10
S'\xa5\xa1\xe9\x82\x1b\xf0\xd9\xbf'
tRp42
sg20
I0
ssS'J1807-2459B'
p43
(dp44
g4
F3.8648214046954754e-09
sg5
S'1.5e-11'
p45
sg7
g8
(g10
S'\xf5dO\x85\xbe\x1fv>'
tRp46
sg12
I0
sg13
S'238.881430848499'
p47
sg15
F4.7574399152740368
sg16
F0.78539816339744828
sg17
F0.78539816339744828
sg18
g8
(g10
S'\x15\x92\xd0l\xb7\xec\xdb\xbf'
tRp48
sg20
I0
ssS'J1807-2459A'
p49
(dp50
g4
F1.1667385372665585e-09
sg5
S'4.0e-12'
p51
sg7
g8
(g10
S'$>\xc48\x19\xeb`>'
tRp52
sg12
I0
sg13
S'326.856262685978'
p53
sg15
F4.7574023167600679
sg16
F0.78539816339744828
sg17
F0.78539816339744828
sg18
g8
(g10
S'\xf2@\xa0\xe1\x85\xb1\xd9\xbf'
tRp54
sg20
I0
ssS'J1300+1240'
p55
(dp56
g4
F7.2921158579159917e-09
sg5
S'8.0e-13'
p57
sg7
g8
(g10
S'\xe6S\x02\t\xb3\xfc\x18>'
tRp58
sg12
I0
sg13
S'160.8096586618355'
p59
sg15
F3.4129710386125738
sg16
F0.78539816339744828
sg17
F0.78539816339744828
sg18
g8
(g10
S'\x1f\x85\x02\x82(U\xcc?'
tRp60
sg20
I0
ssS'J1024-0719'
p61
(dp62
g4
F2.1876347573747975e-09
sg5
S'1.3e-10'
p63
sg7
g8
(g10
S'@\x9b,2\x95\xd24>'
tRp64
sg12
I0
sg13
S'193.71568356844'
p65
sg15
F2.7329893845305904
sg16
F0.78539816339744828
sg17
F0.78539816339744828
sg18
g8
(g10
S'\xc6\xf3\x83\xc3n\xd6\xbd\xbf'
tRp66
sg20
I0
ssS'J0218+4232'
p67
(dp68
g4
F1.0208962201082388e-07
sg5
S'3.0e-10'
p69
sg7
g8
(g10
S'\xff\xa2U\xe2\xad\x91\x81>'
tRp70
sg12
I0
sg13
S'430.4610663457'
p71
sg15
F0.60425031531358031
sg16
F0.78539816339744828
sg17
F0.78539816339744828
sg18
g8
(g10
S'z\xf1\xa2\x19\xff\xc1\xe7?'
tRp72
sg20
I0
ssS'J1744-1134'
p73
(dp74
g4
F2.9168463431663961e-10
sg5
S'5.0e-13'
p75
sg7
g8
(g10
S'\x9a\xe2V[w\xa8\x10>'
tRp76
sg12
I0
sg13
S'245.4261197483027'
p77
sg15
F4.6574308797597936
sg16
F0.78539816339744828
sg17
F0.78539816339744828
sg18
g8
(g10
S'\xee\xcb\xc1\x1e=F\xc7\xbf'
tRp78
sg20
I0
ssS'J1955+2908'
p79
(dp80
g4
F2.1876347573747975e-09
sg5
S'2.0e-11'
p81
sg7
g8
(g10
S'@\x9b,2\x95\xd2$>'
tRp82
sg12
I0
sg13
S'163.04791306911'
p83
sg15
F5.2304798203423184
sg16
F0.78539816339744828
sg17
F0.78539816339744828
sg18
g8
(g10
S'V\x07\x85<"G\xe0?'
tRp84
sg20
I0
ssS'J1721-2457'
p85
(dp86
g4
F2.1876347573747972e-08
sg5
S'1.5e-11'
p87
sg7
g8
(g10
S'\x8d\xd1\t\xdfk\x85\x93>'
tRp88
sg12
I0
sg13
S'285.989343507338'
p89
sg15
F4.5550563614182265
sg16
F0.78539816339744828
sg17
F0.78539816339744828
sg18
g8
(g10
S'\x13\xf8\xedm\xc0\xbe\xd9\xbf'
tRp90
sg20
I0
ssS'J1732-5049'
p91
(dp92
g4
F2.9168463431663967e-09
sg5
S'3.0e-12'
p93
sg7
g8
(g10
S'\x94w\x97\x1d\xa4\xe76>'
tRp94
sg12
I0
sg13
S'188.233512265437'
p95
sg15
F4.6062667442894627
sg16
F0.78539816339744828
sg17
F0.78539816339744828
sg18
g8
(g10
S'\x05\xc3\xf2\xf5\x18x\xeb\xbf'
tRp96
sg20
I0
ssS'J1302-6350'
p97
(dp98
g4
F7.2921158579159912e-07
sg5
S'7.0e-11'
p99
sg7
g8
(g10
S'K\xd92\x8f\x84D\xa0>'
tRp100
sg12
I0
sg13
S'20.93692453667'
p101
sg15
F3.4249354537404799
sg16
F0.78539816339744828
sg17
F0.78539816339744828
sg18
g8
(g10
S'\xbb\x84\x0eb\n\\\xf1\xbf'
tRp102
sg20
I0
ssS'J1537+1155'
p103
(dp104
g4
F2.1876347573747972e-10
sg5
S'3.0e-14'
p105
sg7
g8
(g10
S'==\x13\xb3@R\xf7='
tRp106
sg12
I0
sg13
S'26.38213303572183'
p107
sg15
F4.1003538536133526
sg16
F0.78539816339744828
sg17
F0.78539816339744828
sg18
g8
(g10
S'\xb9\x04\xe7u\x14\xa8\xca?'
tRp108
sg20
I0
ssS'J0407+1607'
p109
(dp110
g4
F2.1876347573747973e-07
sg5
S'4.0e-11'
p111
sg7
g8
(g10
S'K\xd92\x8f\x84D\xb0>'
tRp112
sg12
I0
sg13
S'38.90787282632'
p113
sg15
F1.0846977856743303
sg16
F0.78539816339744828
sg17
F0.78539816339744828
sg18
g8
(g10
S'\x13\xc0\xc9\xa2\xf0\x01\xd2?'
tRp114
sg20
I0
ssS'J1843-1113'
p115
(dp116
g4
F1.4584231715831983e-08
sg5
S'1.4e-10'
p117
sg7
g8
(g10
S'@\x9b,2\x95\xd2t>'
tRp118
sg12
I0
sg13
S'541.80975407334'
p119
sg15
F4.9164365561393772
sg16
F0.78539816339744828
sg17
F0.78539816339744828
sg18
g8
(g10
S'\xdeQ\xf2Y(\x12\xc8\xbf'
tRp120
sg20
I0
ssS'J1455-3330'
p121
(dp122
g4
F7.2921158579159915e-08
sg5
S'5.0e-11'
p123
sg7
g8
(g10
S'\x8d\xd1\t\xdfk\x85\x83>'
tRp124
sg12
I0
sg13
S'125.20024533089'
p125
sg15
F3.919363689477124
sg16
F0.78539816339744828
sg17
F0.78539816339744828
sg18
g8
(g10
S'\xe6\x98\xf4a\xec$\xe2\xbf'
tRp126
sg20
I0
ssS'J2010-1323'
p127
(dp128
g4
F1.4584231715831983e-08
sg5
S'4.0e-11'
p129
sg7
g8
(g10
S'\xe1\xe8B\xcb\xdf;_>'
tRp130
sg12
I0
sg13
S'191.45091209931'
p131
sg15
F5.2974246232805005
sg16
F0.78539816339744828
sg17
F0.78539816339744828
sg18
g8
(g10
S'E>\xbb\xd3\xb0&\xcc\xbf'
tRp132
sg20
I0
ssS'J0437-4715'
p133
(dp134
g4
F2.1876347573747972e-10
sg5
S'3.0e-12'
p135
sg7
g8
(g10
S'\x92\x82\xd2\xf7h\xa7\xe8='
tRp136
sg12
I0
sg13
S'173.687946184768'
p137
sg15
F1.2131078805776401
sg16
F0.78539816339744828
sg17
F0.78539816339744828
sg18
g8
(g10
S'\xb0\x00\xcc\\\xd5\x1b\xea\xbf'
tRp138
sg20
I0
ssS'J0514-4002A'
p139
(dp140
g4
F1.4584231715831983e-08
sg5
S'1.1e-10'
p141
sg7
g8
(g10
S'@\x9b,2\x95\xd2D>'
tRp142
sg12
I0
sg13
S'200.37770740529'
p143
sg15
F1.3743226670693953
sg16
F0.78539816339744828
sg17
F0.78539816339744828
sg18
g8
(g10
S'\x13\xf0\xcc\x11cP\xe6\xbf'
tRp144
sg20
I0
ssS'J1748-2446V'
p145
(dp146
g4
F0
sg5
S'0'
sg7
g8
(g10
S'\x00\x00\x00\x00\x00\x00\x00\x00'
tRp147
sg12
I0
sg13
S'482.506719'
p148
sg15
F4.6731378633137473
sg16
F0.78539816339744828
sg17
F0.78539816339744828
sg18
g8
(g10
S'\xa5\xa1\xe9\x82\x1b\xf0\xd9\xbf'
tRp149
sg20
I0
ssS'J1909-3744'
p150
(dp151
g4
F5.8336926863327926e-11
sg5
S'1.0e-13'
p152
sg7
g8
(g10
S'\xec\x0f5\x07\\\xfd\xe3='
tRp153
sg12
I0
sg13
S'339.31568740949071'
p154
sg15
F5.030643805153395
sg16
F0.78539816339744828
sg17
F0.78539816339744828
sg18
g8
(g10
S'\x08][\xd8\xbd@\xe4\xbf'
tRp155
sg20
I0
ssS'J1748-2446W'
p156
(dp157
g4
F0
sg5
S'0'
sg7
g8
(g10
S'\x00\x00\x00\x00\x00\x00\x00\x00'
tRp158
sg12
I0
sg13
S'237.801949'
p159
sg15
F4.6731378633137473
sg16
F0.78539816339744828
sg17
F0.78539816339744828
sg18
g8
(g10
S'\xa5\xa1\xe9\x82\x1b\xf0\xd9\xbf'
tRp160
sg20
I0
ssS'J1748-2446T'
p161
(dp162
g4
F0
sg5
S'0'
sg7
g8
(g10
S'\x00\x00\x00\x00\x00\x00\x00\x00'
tRp163
sg12
I0
sg13
S'141.145053'
p164
sg15
F4.6731378633137473
sg16
F0.78539816339744828
sg17
F0.78539816339744828
sg18
g8
(g10
S'\xa5\xa1\xe9\x82\x1b\xf0\xd9\xbf'
tRp165
sg20
I0
ssS'J1641+3627D'
p166
(dp167
g4
F0
sg5
S'1.1e-01'
p168
sg7
g8
(g10
S'\x00\x00\x00\x00\x00\x00\x00\x00'
tRp169
sg12
I0
sg13
S'320.72'
p170
sg15
F4.3826345517660901
sg16
F0.78539816339744828
sg17
F0.78539816339744828
sg18
g8
(g10
S'\xf5\xbc^\xa5\xfe\\\xe4?'
tRp171
sg20
I0
ssS'J1641+3627E'
p172
(dp173
g4
F0.00065629042721243916
sg5
S'1.7e-01'
p174
sg7
g8
(g10
S'eP\xaf\xe7\xd2\xc5??'
tRp175
sg12
I0
sg13
S'402.09'
p176
sg15
F4.3826345517660901
sg16
F0.78539816339744828
sg17
F0.78539816339744828
sg18
g8
(g10
S'\xf5\xbc^\xa5\xfe\\\xe4?'
tRp177
sg20
I0
ssS'J1641+3627B'
p178
(dp179
g4
F0.00065629042721243916
sg5
S'5.0e-04'
p180
sg7
g8
(g10
S'eP\xaf\xe7\xd2\xc5??'
tRp181
sg12
I0
sg13
S'283.4409'
p182
sg15
F4.3826345517660901
sg16
F0.78539816339744828
sg17
F0.78539816339744828
sg18
g8
(g10
S'\xf5\xbc^\xa5\xfe\\\xe4?'
tRp183
sg20
I0
ssS'J1641+3627C'
p184
(dp185
g4
F0
sg5
S'8.0e-02'
p186
sg7
g8
(g10
S'\x00\x00\x00\x00\x00\x00\x00\x00'
tRp187
sg12
I0
sg13
S'268.67'
p188
sg15
F4.3826345517660901
sg16
F0.78539816339744828
sg17
F0.78539816339744828
sg18
g8
(g10
S'\xf5\xbc^\xa5\xfe\\\xe4?'
tRp189
sg20
I0
ssS'J1641+3627A'
p190
(dp191
g4
F2.1876347573747973e-07
sg5
S'6.0e-09'
p192
sg7
g8
(g10
S'\x8d\xd1\t\xdfk\x85\x93>'
tRp193
sg12
I0
sg13
S'96.362234564'
p194
sg15
F4.3826258012270598
sg16
F0.78539816339744828
sg17
F0.78539816339744828
sg18
g8
(g10
S'\xc1\x19~p#\\\xe4?'
tRp195
sg20
I0
ssS'J1748-2446P'
p196
(dp197
g4
F0
sg5
S'0'
sg7
g8
(g10
S'\x00\x00\x00\x00\x00\x00\x00\x00'
tRp198
sg12
I0
sg13
S'578.496141'
p199
sg15
F4.6731378633137473
sg16
F0.78539816339744828
sg17
F0.78539816339744828
sg18
g8
(g10
S'\xa5\xa1\xe9\x82\x1b\xf0\xd9\xbf'
tRp200
sg20
I0
ssS'J1748-2446J'
p201
(dp202
g4
F0
sg5
S'0'
sg7
g8
(g10
S'\x00\x00\x00\x00\x00\x00\x00\x00'
tRp203
sg12
I0
sg13
S'12.447421'
p204
sg15
F4.6731378633137473
sg16
F0.78539816339744828
sg17
F0.78539816339744828
sg18
g8
(g10
S'\xa5\xa1\xe9\x82\x1b\xf0\xd9\xbf'
tRp205
sg20
I0
ssS'J1038+0032'
p206
(dp207
g4
F6.5629042721243912e-07
sg5
S'1.0e-10'
p208
sg7
g8
(g10
S'\xefE\xcc\xd6\xc6f\xb8>'
tRp209
sg12
I0
sg13
S'34.66017334965'
p210
sg15
F2.7933859359742539
sg16
F0.78539816339744828
sg17
F0.78539816339744828
sg18
g8
(g10
S'\x0b!\xdf\x1e\x1e\x7f\x83?'
tRp211
sg20
I0
ssS'J2129+1210F'
p212
(dp213
g4
F3.6460579289579956e-07
sg5
S'1.0e-08'
p214
sg7
g8
(g10
S'K\xd92\x8f\x84D\xa0>'
tRp215
sg12
I0
sg13
S'248.321180760'
p216
sg15
F5.6438918905174669
sg16
F0.78539816339744828
sg17
F0.78539816339744828
sg18
g8
(g10
S'\xf2\xf1\x10\xc5\xb1.\xcb?'
tRp217
sg20
I0
ssS'J2129+1210G'
p218
(dp219
g4
F2.1876347573747971e-06
sg5
S'6.0e-09'
p220
sg7
g8
(g10
S'\xefE\xcc\xd6\xc6f\xc8>'
tRp221
sg12
I0
sg13
S'26.553254563'
p222
sg15
F5.6439481856518894
sg16
F0.78539816339744828
sg17
F0.78539816339744828
sg18
g8
(g10
S'03\xb4\x9d\xcd-\xcb?'
tRp223
sg20
I0
ssS'J2129+1210D'
p224
(dp225
g4
F5.1044811005411942e-07
sg5
S'1.4e-08'
p226
sg7
g8
(g10
S'\xadM\xf5\x86\xdf%\xa5>'
tRp227
sg12
I0
sg13
S'208.211688010'
p228
sg15
F5.6439718121072699
sg16
F0.78539816339744828
sg17
F0.78539816339744828
sg18
g8
(g10
S'M6C\xd90.\xcb?'
tRp229
sg20
I0
ssS'J2129+1210E'
p230
(dp231
g4
F2.9168463431663966e-07
sg5
S'7.0e-09'
p232
sg7
g8
(g10
S'\x11\xc2\xb7~:\x07\x9a>'
tRp233
sg12
I0
sg13
S'214.987407906'
p234
sg15
F5.6439654679664732
sg16
F0.78539816339744828
sg17
F0.78539816339744828
sg18
g8
(g10
S'}\xbe\xabe\x9a/\xcb?'
tRp235
sg20
I0
ssS'J2129+1210C'
p236
(dp237
g4
F7.2921158579159917e-09
sg5
S'1.1e-11'
p238
sg7
g8
(g10
S'@\x9b,2\x95\xd2T>'
tRp239
sg12
I0
sg13
S'32.755422697308'
p240
sg15
F5.6441854856861378
sg16
F0.78539816339744828
sg17
F0.78539816339744828
sg18
g8
(g10
S'\xa0\x04ZYM4\xcb?'
tRp241
sg20
I0
ssS'J1939+2134'
p242
(dp243
g4
F1.4584231715831981e-10
sg5
S'1.3e-12'
p244
sg7
g8
(g10
S'\xec\x0f5\x07\\\xfd\xe3='
tRp245
sg12
I0
sg13
S'641.9282611068082'
p246
sg15
F5.1612545044255018
sg16
F0.78539816339744828
sg17
F0.78539816339744828
sg18
g8
(g10
S'\x80:+\xbe\xc9\x1b\xd8?'
tRp247
sg20
I0
ssS'J2229+2643'
p248
(dp249
g4
F1.4584231715831983e-08
sg5
S'6.0e-11'
p250
sg7
g8
(g10
S'@\x9b,2\x95\xd2T>'
tRp251
sg12
I0
sg13
S'335.81621348252'
p252
sg15
F5.9059492706411261
sg16
F0.78539816339744828
sg17
F0.78539816339744828
sg18
g8
(g10
S'\xad\xf1\t\xfaX\xdc\xdd?'
tRp253
sg20
I0
ssS'J2140-2310B'
p254
(dp255
g4
F0.0011667385372665586
sg5
S'1.4e-05'
p256
sg7
g8
(g10
S'w\x89\xc9\xc2TrU?'
tRp257
sg12
I0
sg13
S'77.003746'
p258
sg15
F5.6894546346632149
sg16
F0.78539816339744828
sg17
F0.78539816339744828
sg18
g8
(g10
S'\x1d^\x8f\x13\x91}\xd9\xbf'
tRp259
sg20
I0
ssS'J1952+3252'
p260
(dp261
g4
F7.2921158579159915e-08
sg5
S'7.0e-10'
p262
sg7
g8
(g10
S'\x11\xc2\xb7~:\x07j>'
tRp263
sg12
I0
sg13
S'25.2964792556'
p264
sg15
F5.2195657105377755
sg16
F0.78539816339744828
sg17
F0.78539816339744828
sg18
g8
(g10
S'\xc2\x05pl\xcc\\\xe2?'
tRp265
sg20
I0
ssS'J2140-2310A'
p266
(dp267
g4
F3.3543732946413562e-08
sg5
S'6.0e-11'
p268
sg7
g8
(g10
S'q\xafo\xe6T?i>'
tRp269
sg12
I0
sg13
S'90.74962674670'
p270
sg15
F5.6894842479457131
sg16
F0.78539816339744828
sg17
F0.78539816339744828
sg18
g8
(g10
S'\xa2\n\xb6\x9al}\xd9\xbf'
tRp271
sg20
I0
ssS'J1804-0735'
p272
(dp273
g4
F1.1667385372665587e-07
sg5
S'4.0e-11'
p274
sg7
g8
(g10
S'kU\x1e7\xf8\xe4\xa1>'
tRp275
sg12
I0
sg13
S'43.28844052279'
p276
sg15
F4.7464305843643313
sg16
F0.78539816339744828
sg17
F0.78539816339744828
sg18
g8
(g10
S'y\xf0U\x11\xa9\xa3\xbc\xbf'
tRp277
sg20
I0
ssS'J1853+1303'
p278
(dp279
g4
F5.8336926863327923e-10
sg5
S'1.5e-12'
p280
sg7
g8
(g10
S'\x9a\xe2V[w\xa8\x10>'
tRp281
sg12
I0
sg13
S'244.3913778653740'
p282
sg15
F4.9613601407881713
sg16
F0.78539816339744828
sg17
F0.78539816339744828
sg18
g8
(g10
S'5W\xfe\xd9k.\xcd?'
tRp283
sg20
I0
ssS'J1045-4509'
p284
(dp285
g4
F3.6460579289579958e-09
sg5
S'2.0e-12'
p286
sg7
g8
(g10
S'@\x9b,2\x95\xd2$>'
tRp287
sg12
I0
sg13
S'133.793149594456'
p288
sg15
F2.8257087142312085
sg16
F0.78539816339744828
sg17
F0.78539816339744828
sg18
g8
(g10
S'S=\x9b\x83b\n\xe9\xbf'
tRp289
sg20
I0
ssS'J1701-3006B'
p290
(dp291
g4
F7.2921158579159915e-08
sg5
S'3.0e-10'
p292
sg7
g8
(g10
S']\xf8\x94+\x11\xba\x98>'
tRp293
sg12
I0
sg13
S'278.2529621831'
p294
sg15
F4.4680739179198694
sg16
F0.78539816339744828
sg17
F0.78539816339744828
sg18
g8
(g10
S'\xab\xc1\xc9Z\x13\xb1\xe0\xbf'
tRp295
sg20
I0
ssS'J1944+0907'
p296
(dp297
g4
F2.1876347573747975e-09
sg5
S'1.2e-11'
p298
sg7
g8
(g10
S'\xe6S\x02\t\xb3\xfc8>'
tRp299
sg12
I0
sg13
S'192.856521016910'
p300
sg15
F5.1809987919152514
sg16
F0.78539816339744828
sg17
F0.78539816339744828
sg18
g8
(g10
S'\\\x07N\x98\x99a\xc4?'
tRp301
sg20
I0
ssS'J0621+1002'
p302
(dp303
g4
F2.1876347573747975e-09
sg5
S'1.3e-12'
p304
sg7
g8
(g10
S'@\x9b,2\x95\xd2D>'
tRp305
sg12
I0
sg13
S'34.6574071787412'
p306
sg15
F1.6685900506906319
sg16
F0.78539816339744828
sg17
F0.78539816339744828
sg18
g8
(g10
S'\x1a%5&Pp\xc6?'
tRp307
sg20
I0
ssS'J0024-7204P'
p308
(dp309
g4
F0
sg5
S'8.0e-05'
p310
sg7
g8
(g10
S'\x00\x00\x00\x00\x00\x00\x00\x00'
tRp311
sg12
I0
sg13
S'274.49746'
p312
sg15
F0.10541993132313411
sg16
F0.78539816339744828
sg17
F0.78539816339744828
sg18
g8
(g10
S'\xa8\xd0|\xe3_\x15\xf4\xbf'
tRp313
sg20
I0
ssS'J1312+1810'
p314
(dp315
g4
F0.0014584231715831981
sg5
S'3.0e-06'
p316
sg7
g8
(g10
S'\x85s\xbf\x1f\x0fk\xf9>'
tRp317
sg12
I0
sg13
S'30.153936'
p318
sg15
F3.4692241194035329
sg16
F0.78539816339744828
sg17
F0.78539816339744828
sg18
g8
(g10
S'^\x08\t\xe1*\xa5u?'
tRp319
sg20
I0
ssS'J1748-2446C'
p320
(dp321
g4
F7.2921158579159912e-07
sg5
S'1.5e-09'
p322
sg7
g8
(g10
S'\x9d\x8f\xff\xb2\xa5U\xf4>'
tRp323
sg12
I0
sg13
S'118.5382530563'
p324
sg15
F4.6731189038125169
sg16
F0.78539816339744828
sg17
F0.78539816339744828
sg18
g8
(g10
S'\xa1\xec\xbc\x85\xd2\xf0\xd9\xbf'
tRp325
sg20
I0
ssS'J1804-2717'
p326
(dp327
g4
F5.9795350034911124e-08
sg5
S'7.0e-11'
p328
sg7
g8
(g10
S'kU\x1e7\xf8\xe4\xb1>'
tRp329
sg12
I0
sg13
S'107.03165103913'
p330
sg15
F4.7443330655747289
sg16
F0.78539816339744828
sg17
F0.78539816339744828
sg18
g8
(g10
S'Pf\x84\x81G\xd5\xdd\xbf'
tRp331
sg20
I0
ssS'J1453+1902'
p332
(dp333
g4
F7.2921158579159917e-09
sg5
S'1.2e-11'
p334
sg7
g8
(g10
S'\xe1\xe8B\xcb\xdf;O>'
tRp335
sg12
I0
sg13
S'172.642910040475'
p336
sg15
F3.9104494497387305
sg16
F0.78539816339744828
sg17
F0.78539816339744828
sg18
g8
(g10
S't\tC\x98\xa4C\xd5?'
tRp337
sg20
I0
ssS'J1701-3006A'
p338
(dp339
g4
F3.5731367703788352e-08
sg5
S'1.1e-10'
p340
sg7
g8
(g10
S'\xa8.r\xd8\xe7l\x87>'
tRp341
sg12
I0
sg13
S'190.78267088868'
p342
sg15
F4.4680623759588896
sg16
F0.78539816339744828
sg17
F0.78539816339744828
sg18
g8
(g10
S'^@\xac8\xd3\xb1\xe0\xbf'
tRp343
sg20
I0
ssS'J1911-1114'
p344
(dp345
g4
F1.4584231715831983e-08
sg5
S'4.0e-11'
p346
sg7
g8
(g10
S'\x11\xc2\xb7~:\x07z>'
tRp347
sg12
I0
sg13
S'275.80534273796'
p348
sg15
F5.0395296922702784
sg16
F0.78539816339744828
sg17
F0.78539816339744828
sg18
g8
(g10
S'\xcd\xfd\x95\xeb\x02\n\xc8\xbf'
tRp349
sg20
I0
ssS'J1713+0747'
p350
(dp351
g4
F4.3752695147495941e-11
sg5
S'3.0e-13'
p352
sg7
g8
(g10
S'\x91j\xf1^%\xa7\xda='
tRp353
sg12
I0
sg13
S'218.8118439157321'
p354
sg15
F4.5232652326241949
sg16
F0.78539816339744828
sg17
F0.78539816339744828
sg18
g8
(g10
S'\x93]\x94\xe2Ri\xc1?'
tRp355
sg20
I0
ssS'J0024-7204U'
p356
(dp357
g4
F1.4584231715831983e-08
sg5
S'2.0e-11'
p358
sg7
g8
(g10
S'\xed\xbe\xc1F\x86\xbd2>'
tRp359
sg12
I0
sg13
S'230.26477221192'
p360
sg15
F0.10572365524073217
sg16
F0.78539816339744828
sg17
F0.78539816339744828
sg18
g8
(g10
S'3Jo\tm\x16\xf4\xbf'
tRp361
sg20
I0
ssS'J0034-0534'
p362
(dp363
g4
F9.4797506152907877e-08
sg5
S'6.0e-11'
p364
sg7
g8
(g10
S'\x11\xc2\xb7~:\x07\x8a>'
tRp365
sg12
I0
sg13
S'532.71342974902'
p366
sg15
F0.15035089384306799
sg16
F0.78539816339744828
sg17
F0.78539816339744828
sg18
g8
(g10
S'B\xad\x07\xaeK\xc3\xb3\xbf'
tRp367
sg20
I0
ssS'J1748-2446G'
p368
(dp369
g4
F0
sg5
S'0'
sg7
g8
(g10
S'\x00\x00\x00\x00\x00\x00\x00\x00'
tRp370
sg12
I0
sg13
S'46.142765'
p371
sg15
F4.6731378633137473
sg16
F0.78539816339744828
sg17
F0.78539816339744828
sg18
g8
(g10
S'\xa5\xa1\xe9\x82\x1b\xf0\xd9\xbf'
tRp372
sg20
I0
ssS'J1701-3006D'
p373
(dp374
g4
F1.0938173786873987e-07
sg5
S'1.5e-10'
p375
sg7
g8
(g10
S'\xa4\x0f\xef)\xf0\xb3\x99>'
tRp376
sg12
I0
sg13
S'292.58840407111'
p377
sg15
F4.4681392115252612
sg16
F0.78539816339744828
sg17
F0.78539816339744828
sg18
g8
(g10
S'\xabo\x19JU\xb1\xe0\xbf'
tRp378
sg20
I0
ssS'J2145-0750'
p379
(dp380
g4
F2.1876347573747975e-09
sg5
S'6.0e-13'
p381
sg7
g8
(g10
S'\x8e\x0c\xd8\xdf\xd0&=>'
tRp382
sg12
I0
sg13
S'62.2958878569665'
p383
sg15
F5.7134066188452994
sg16
F0.78539816339744828
sg17
F0.78539816339744828
sg18
g8
(g10
S'\x86Pt\x06\xb1\x87\xbb\xbf'
tRp384
sg20
I0
ssS'J1911+0101A'
p385
(dp386
g4
F2.9168463431663967e-09
sg5
S'1.6e-10'
p387
sg7
g8
(g10
S'@\x9b,2\x95\xd2D>'
tRp388
sg12
I0
sg13
S'276.35575461663'
p389
sg15
F5.0367438757693277
sg16
F0.78539816339744828
sg17
F0.78539816339744828
sg18
g8
(g10
S'\x9c2m@*\x84\x92?'
tRp390
sg20
I0
ssS'J1911+0101B'
p391
(dp392
g4
F2.9168463431663967e-08
sg5
S'4.0e-10'
p393
sg7
g8
(g10
S'\x11\xc2\xb7~:\x07z>'
tRp394
sg12
I0
sg13
S'185.7242772016'
p395
sg15
F5.0368520127430196
sg16
F0.78539816339744828
sg17
F0.78539816339744828
sg18
g8
(g10
S"'\xf3B\x9d\xa2k\x92?"
tRp396
sg20
I0
ssS'J1701-3006E'
p397
(dp398
g4
F1.2396596958457183e-07
sg5
S'7.0e-10'
p399
sg7
g8
(g10
S'kU\x1e7\xf8\xe4\xa1>'
tRp400
sg12
I0
sg13
S'309.2397115125'
p401
sg15
F4.4681180862656209
sg16
F0.78539816339744828
sg17
F0.78539816339744828
sg18
g8
(g10
S'\xb1,EA)\xb1\xe0\xbf'
tRp402
sg20
I0
ssS'J1905+0154A'
p403
(dp404
g4
F2.9168463431663964e-05
sg5
S'1.0e-06'
p405
sg7
g8
(g10
S'xe\x1f\xd6\xc3\xf5\x1b?'
tRp406
sg12
I0
sg13
S'313.1908972'
p407
sg15
F5.0108065802304047
sg16
F0.78539816339744828
sg17
F0.78539816339744828
sg18
g8
(g10
S'\xb5y\x15m{\x0f\xa1?'
tRp408
sg20
I0
ssS'J1857+0943'
p409
(dp410
g4
F9.4797506152907871e-10
sg5
S'0'
sg7
g8
(g10
S'\xe6S\x02\t\xb3\xfc\x18>'
tRp411
sg12
I0
sg13
S'186.4940786202322'
p412
sg15
F4.9773352513586353
sg16
F0.78539816339744828
sg17
F0.78539816339744828
sg18
g8
(g10
S'B\xe6\xc3]\xcc\xb7\xc5?'
tRp413
sg20
I0
ssS'J1730-2304'
p414
(dp415
g4
F2.1876347573747972e-08
sg5
S'2.0e-12'
p416
sg7
g8
(g10
S'\x11\xc2\xb7~:\x07\x9a>'
tRp417
sg12
I0
sg13
S'123.110287192301'
p418
sg15
F4.5956125429951733
sg16
F0.78539816339744828
sg17
F0.78539816339744828
sg18
g8
(g10
S'\xc3\x04K\xf9h\x9b\xd9\xbf'
tRp419
sg20
I0
ssS'J1824-2452F'
p420
(dp421
g4
F0
sg5
S'0'
sg7
g8
(g10
S'\x00\x00\x00\x00\x00\x00\x00\x00'
tRp422
sg12
I0
sg13
S'407.996736'
p423
sg15
F4.8326900874965348
sg16
F0.78539816339744828
sg17
F0.78539816339744828
sg18
g8
(g10
S'g\x8c\xc6`2\xd6\xd9\xbf'
tRp424
sg20
I0
ssS'J0613-0200'
p425
(dp426
g4
F8.0213274437075898e-10
sg5
S'4.0e-12'
p427
sg7
g8
(g10
S'\x9a\xe2V[w\xa8 >'
tRp428
sg12
I0
sg13
S'326.600562190182'
p429
sg15
F1.6351822473049218
sg16
F0.78539816339744828
sg17
F0.78539816339744828
sg18
g8
(g10
S'.?/\x95L\xc1\xa1\xbf'
tRp430
sg20
I0
ssS'J1824-2452D'
p431
(dp432
g4
F0
sg5
S'0'
sg7
g8
(g10
S'\x00\x00\x00\x00\x00\x00\x00\x00'
tRp433
sg12
I0
sg13
S'12.526305'
p434
sg15
F4.8326900874965348
sg16
F0.78539816339744828
sg17
F0.78539816339744828
sg18
g8
(g10
S'g\x8c\xc6`2\xd6\xd9\xbf'
tRp435
sg20
I0
ssS'J1824-2452E'
p436
(dp437
g4
F0
sg5
S'0'
sg7
g8
(g10
S'\x00\x00\x00\x00\x00\x00\x00\x00'
tRp438
sg12
I0
sg13
S'184.501845'
p439
sg15
F4.8326900874965348
sg16
F0.78539816339744828
sg17
F0.78539816339744828
sg18
g8
(g10
S'g\x8c\xc6`2\xd6\xd9\xbf'
tRp440
sg20
I0
ssS'J1824-2452B'
p441
(dp442
g4
F0
sg5
S'0'
sg7
g8
(g10
S'\x00\x00\x00\x00\x00\x00\x00\x00'
tRp443
sg12
I0
sg13
S'152.741714'
p444
sg15
F4.8326900874965348
sg16
F0.78539816339744828
sg17
F0.78539816339744828
sg18
g8
(g10
S'g\x8c\xc6`2\xd6\xd9\xbf'
tRp445
sg20
I0
ssS'J1824-2452C'
p446
(dp447
g4
F0
sg5
S'0'
sg7
g8
(g10
S'\x00\x00\x00\x00\x00\x00\x00\x00'
tRp448
sg12
I0
sg13
S'240.442414'
p449
sg15
F4.8326900874965348
sg16
F0.78539816339744828
sg17
F0.78539816339744828
sg18
g8
(g10
S'g\x8c\xc6`2\xd6\xd9\xbf'
tRp450
sg20
I0
ssS'J1824-2452A'
p451
(dp452
g4
F1.4584231715831983e-09
sg5
S'6.0e-10'
p453
sg7
g8
(g10
S'\xe1\xe8B\xcb\xdf;_>'
tRp454
sg12
I0
sg13
S'327.4055946921'
p455
sg15
F4.8326316018105082
sg16
F0.78539816339744828
sg17
F0.78539816339744828
sg18
g8
(g10
S'\xd3T\x19\x06:\xd6\xd9\xbf'
tRp456
sg20
I0
ssS'J1748-2446A'
p457
(dp458
g4
F1.4584231715831983e-07
sg5
S'3.0e-10'
p459
sg7
g8
(g10
S'\xefE\xcc\xd6\xc6f\xc8>'
tRp460
sg12
I0
sg13
S'86.4816368591'
p461
sg15
F4.6729522789651625
sg16
F0.78539816339744828
sg17
F0.78539816339744828
sg18
g8
(g10
S'\x88\xcb\xa78\xc0\xf0\xd9\xbf'
tRp462
sg20
I0
ssS'J0635+0533'
p463
(dp464
g4
F0.00014584231715831982
sg5
S'1.0e-05'
p465
sg7
g8
(g10
S'\xa3\x96\xcfWK\x10#?'
tRp466
sg12
I0
sg13
S'29.53643'
p467
sg15
F1.7295440391805148
sg16
F0.78539816339744828
sg17
F0.78539816339744828
sg18
g8
(g10
S'\xde\xca\xb3\xb9\xb0\xcf\xb8?'
tRp468
sg20
I0
ssS'J0537-6910'
p469
(dp470
g4
F8.0213274437075905e-06
sg5
S'1.3e-09'
p471
sg7
g8
(g10
S'\xefE\xcc\xd6\xc6f\xc8>'
tRp472
sg12
I0
sg13
S'62.0261895958'
p473
sg15
F1.477923456125803
sg16
F0.78539816339744828
sg17
F0.78539816339744828
sg18
g8
(g10
S'\xbd\x0f\xd9\xe7h8\xf3\xbf'
tRp474
sg20
I0
ssS'J1745-0952'
p475
(dp476
g4
F1.4584231715831983e-08
sg5
S'5.0e-12'
p477
sg7
g8
(g10
S'\x8d\xd1\t\xdfk\x85s>'
tRp478
sg12
I0
sg13
S'51.609431233273'
p479
sg15
F4.6603281534077068
sg16
F0.78539816339744828
sg17
F0.78539816339744828
sg18
g8
(g10
S'\xe1\x95\xb4\xfa9%\xc2\xbf'
tRp480
sg20
I0
ssS'J1824-2452G'
p481
(dp482
g4
F0
sg5
S'0'
sg7
g8
(g10
S'\x00\x00\x00\x00\x00\x00\x00\x00'
tRp483
sg12
I0
sg13
S'169.233373'
p484
sg15
F4.8326900874965348
sg16
F0.78539816339744828
sg17
F0.78539816339744828
sg18
g8
(g10
S'g\x8c\xc6`2\xd6\xd9\xbf'
tRp485
sg20
I0
ssS'J1748-2446F'
p486
(dp487
g4
F0
sg5
S'0'
sg7
g8
(g10
S'\x00\x00\x00\x00\x00\x00\x00\x00'
tRp488
sg12
I0
sg13
S'180.500854'
p489
sg15
F4.6731378633137473
sg16
F0.78539816339744828
sg17
F0.78539816339744828
sg18
g8
(g10
S'\xa5\xa1\xe9\x82\x1b\xf0\xd9\xbf'
tRp490
sg20
I0
ssS'J1600-3053'
p491
(dp492
g4
F8.0213274437075898e-10
sg5
S'1.7e-12'
p493
sg7
g8
(g10
S'@\x9b,2\x95\xd2$>'
tRp494
sg12
I0
sg13
S'277.9377070984926'
p495
sg15
F4.2040436192444295
sg16
F0.78539816339744828
sg17
F0.78539816339744828
sg18
g8
(g10
S'\xc8\xe0\xe3\x9b\x10A\xe0\xbf'
tRp496
sg20
I0
ssS'J0024-7204I'
p497
(dp498
g4
F2.1876347573747972e-08
sg5
S'4.0e-11'
p499
sg7
g8
(g10
S'@\x9b,2\x95\xd24>'
tRp500
sg12
I0
sg13
S'286.94469953064'
p501
sg15
F0.10558495190499874
sg16
F0.78539816339744828
sg17
F0.78539816339744828
sg18
g8
(g10
S'}m\x12\xba\xa1\x15\xf4\xbf'
tRp502
sg20
I0
ssS'J1748-2446X'
p503
(dp504
g4
F0
sg5
S'0'
sg7
g8
(g10
S'\x00\x00\x00\x00\x00\x00\x00\x00'
tRp505
sg12
I0
sg13
S'333.415576'
p506
sg15
F4.6731378633137473
sg16
F0.78539816339744828
sg17
F0.78539816339744828
sg18
g8
(g10
S'\xa5\xa1\xe9\x82\x1b\xf0\xd9\xbf'
tRp507
sg20
I0
ssS'J0024-7204J'
p508
(dp509
g4
F2.1876347573747975e-09
sg5
S'6.0e-12'
p510
sg7
g8
(g10
S'\x9a\xe2V[w\xa8\x00>'
tRp511
sg12
I0
sg13
S'476.046858440607'
p512
sg15
F0.10496325162935832
sg16
F0.78539816339744828
sg17
F0.78539816339744828
sg18
g8
(g10
S'\xdf\xe2\xa9\x88q\x16\xf4\xbf'
tRp513
sg20
I0
ssS'J0024-7204M'
p514
(dp515
g4
F5.8336926863327933e-08
sg5
S'7.0e-11'
p516
sg7
g8
(g10
S'\xe1\xe8B\xcb\xdf;O>'
tRp517
sg12
I0
sg13
S'271.98722878893'
p518
sg15
F0.10460450505155436
sg16
F0.78539816339744828
sg17
F0.78539816339744828
sg18
g8
(g10
S'\xe1#^\x18\x9e\x14\xf4\xbf'
tRp519
sg20
I0
ssS'J0024-7204L'
p520
(dp521
g4
F7.2921158579159915e-08
sg5
S'7.0e-11'
p522
sg7
g8
(g10
S'@\x9b,2\x95\xd2T>'
tRp523
sg12
I0
sg13
S'230.08774629150'
p524
sg15
F0.10528145404299227
sg16
F0.78539816339744828
sg17
F0.78539816339744828
sg18
g8
(g10
S'\x82\xd1\x86\x10J\x15\xf4\xbf'
tRp525
sg20
I0
ssS'J0024-7204O'
p526
(dp527
g4
F7.2921158579159917e-09
sg5
S'3.0e-11'
p528
sg7
g8
(g10
S'@\x9b,2\x95\xd2$>'
tRp529
sg12
I0
sg13
S'378.30878836037'
p530
sg15
F0.10534563924677366
sg16
F0.78539816339744828
sg17
F0.78539816339744828
sg18
g8
(g10
S'3\xf7\x1f\x1eZ\x15\xf4\xbf'
tRp531
sg20
I0
ssS'J0024-7204N'
p532
(dp533
g4
F2.9168463431663967e-08
sg5
S'4.0e-11'
p534
sg7
g8
(g10
S'@\x9b,2\x95\xd2D>'
tRp535
sg12
I0
sg13
S'327.44431861755'
p536
sg15
F0.10567635857727772
sg16
F0.78539816339744828
sg17
F0.78539816339744828
sg18
g8
(g10
S'6\n\x01\x93\xd8\x15\xf4\xbf'
tRp537
sg20
I0
ssS'J1748-2446R'
p538
(dp539
g4
F0
sg5
S'0'
sg7
g8
(g10
S'\x00\x00\x00\x00\x00\x00\x00\x00'
tRp540
sg12
I0
sg13
S'198.864879'
p541
sg15
F4.6731378633137473
sg16
F0.78539816339744828
sg17
F0.78539816339744828
sg18
g8
(g10
S'\xa5\xa1\xe9\x82\x1b\xf0\xd9\xbf'
tRp542
sg20
I0
ssS'J1748-2446S'
p543
(dp544
g4
F0
sg5
S'0'
sg7
g8
(g10
S'\x00\x00\x00\x00\x00\x00\x00\x00'
tRp545
sg12
I0
sg13
S'163.488451'
p546
sg15
F4.6731378633137473
sg16
F0.78539816339744828
sg17
F0.78539816339744828
sg18
g8
(g10
S'\xa5\xa1\xe9\x82\x1b\xf0\xd9\xbf'
tRp547
sg20
I0
ssS'J0024-7204C'
p548
(dp549
g4
F6.5629042721243921e-09
sg5
S'5.0e-12'
p550
sg7
g8
(g10
S'\x9a\xe2V[w\xa8 >'
tRp551
sg12
I0
sg13
S'173.708218966053'
p552
sg15
F0.10430300595850456
sg16
F0.78539816339744828
sg17
F0.78539816339744828
sg18
g8
(g10
S'^\x80\xefJ\xcb\x15\xf4\xbf'
tRp553
sg20
I0
ssS'J1748-2446Q'
p554
(dp555
g4
F0
sg5
S'0'
sg7
g8
(g10
S'\x00\x00\x00\x00\x00\x00\x00\x00'
tRp556
sg12
I0
sg13
S'355.618777'
p557
sg15
F4.6731378633137473
sg16
F0.78539816339744828
sg17
F0.78539816339744828
sg18
g8
(g10
S'\xa5\xa1\xe9\x82\x1b\xf0\xd9\xbf'
tRp558
sg20
I0
ssS'J0024-7204E'
p559
(dp560
g4
F7.2921158579159917e-09
sg5
S'1.0e-11'
p561
sg7
g8
(g10
S'\x9a\xe2V[w\xa8 >'
tRp562
sg12
I0
sg13
S'282.77910703517'
p563
sg15
F0.10581615573038983
sg16
F0.78539816339744828
sg17
F0.78539816339744828
sg18
g8
(g10
S'\x00\xad\xa0\xff\xd3\x14\xf4\xbf'
tRp564
sg20
I0
ssS'J0024-7204D'
p565
(dp566
g4
F5.1044811005411929e-09
sg5
S'6.0e-12'
p567
sg7
g8
(g10
S'\xe6S\x02\t\xb3\xfc\x18>'
tRp568
sg12
I0
sg13
S'186.651669856838'
p569
sg15
F0.10601856590710435
sg16
F0.78539816339744828
sg17
F0.78539816339744828
sg18
g8
(g10
S'K\x8b;\x85\x8c\x15\xf4\xbf'
tRp570
sg20
I0
ssS'J0024-7204G'
p571
(dp572
g4
F2.1876347573747972e-08
sg5
S'2.0e-11'
p573
sg7
g8
(g10
S'\x8e\x0c\xd8\xdf\xd0&->'
tRp574
sg12
I0
sg13
S'247.50152509652'
p575
sg15
F0.10558682597877422
sg16
F0.78539816339744828
sg17
F0.78539816339744828
sg18
g8
(g10
S'j\x8fO\x9d\xa1\x15\xf4\xbf'
tRp576
sg20
I0
ssS'J0024-7204F'
p577
(dp578
g4
F7.2921158579159917e-09
sg5
S'2.0e-11'
p579
sg7
g8
(g10
S'@\x9b,2\x95\xd2$>'
tRp580
sg12
I0
sg13
S'381.15866365655'
p581
sg15
F0.1052874992070385
sg16
F0.78539816339744828
sg17
F0.78539816339744828
sg18
g8
(g10
S'\x16u\xe4\xc6\x91\x15\xf4\xbf'
tRp582
sg20
I0
ssS'J0024-7204Y'
p583
(dp584
g4
F0
sg5
S'0'
sg7
g8
(g10
S'\x00\x00\x00\x00\x00\x00\x00\x00'
tRp585
sg12
I0
sg13
S'455.236586'
p586
sg15
F0.10541993132313411
sg16
F0.78539816339744828
sg17
F0.78539816339744828
sg18
g8
(g10
S'\xa8\xd0|\xe3_\x15\xf4\xbf'
tRp587
sg20
I0
ssS'J1748-2446K'
p588
(dp589
g4
F0
sg5
S'0'
sg7
g8
(g10
S'\x00\x00\x00\x00\x00\x00\x00\x00'
tRp590
sg12
I0
sg13
S'336.740020'
p591
sg15
F4.6731378633137473
sg16
F0.78539816339744828
sg17
F0.78539816339744828
sg18
g8
(g10
S'\xa5\xa1\xe9\x82\x1b\xf0\xd9\xbf'
tRp592
sg20
I0
ssS'J1748-2446I'
p593
(dp594
g4
F0
sg5
S'0'
sg7
g8
(g10
S'\x00\x00\x00\x00\x00\x00\x00\x00'
tRp595
sg12
I0
sg13
S'104.491133'
p596
sg15
F4.6731378633137473
sg16
F0.78539816339744828
sg17
F0.78539816339744828
sg18
g8
(g10
S'\xa5\xa1\xe9\x82\x1b\xf0\xd9\xbf'
tRp597
sg20
I0
ssS'J1748-2446N'
p598
(dp599
g4
F0
sg5
S'0'
sg7
g8
(g10
S'\x00\x00\x00\x00\x00\x00\x00\x00'
tRp600
sg12
I0
sg13
S'115.381509'
p601
sg15
F4.6731378633137473
sg16
F0.78539816339744828
sg17
F0.78539816339744828
sg18
g8
(g10
S'\xa5\xa1\xe9\x82\x1b\xf0\xd9\xbf'
tRp602
sg20
I0
ssS'J1748-2446O'
p603
(dp604
g4
F0
sg5
S'0'
sg7
g8
(g10
S'\x00\x00\x00\x00\x00\x00\x00\x00'
tRp605
sg12
I0
sg13
S'596.434514'
p606
sg15
F4.6731378633137473
sg16
F0.78539816339744828
sg17
F0.78539816339744828
sg18
g8
(g10
S'\xa5\xa1\xe9\x82\x1b\xf0\xd9\xbf'
tRp607
sg20
I0
ssS'J1748-2446L'
p608
(dp609
g4
F0
sg5
S'0'
sg7
g8
(g10
S'\x00\x00\x00\x00\x00\x00\x00\x00'
tRp610
sg12
I0
sg13
S'445.493830'
p611
sg15
F4.6731378633137473
sg16
F0.78539816339744828
sg17
F0.78539816339744828
sg18
g8
(g10
S'\xa5\xa1\xe9\x82\x1b\xf0\xd9\xbf'
tRp612
sg20
I0
ssS'J1748-2446M'
p613
(dp614
g4
F0
sg5
S'0'
sg7
g8
(g10
S'\x00\x00\x00\x00\x00\x00\x00\x00'
tRp615
sg12
I0
sg13
S'280.145788'
p616
sg15
F4.6731378633137473
sg16
F0.78539816339744828
sg17
F0.78539816339744828
sg18
g8
(g10
S'\xa5\xa1\xe9\x82\x1b\xf0\xd9\xbf'
tRp617
sg20
I0
ssS'J0024-7204Q'
p618
(dp619
g4
F2.9168463431663967e-08
sg5
S'3.0e-11'
p620
sg7
g8
(g10
S'@\x9b,2\x95\xd2D>'
tRp621
sg12
I0
sg13
S'247.94323741908'
p622
sg15
F0.10620887262991789
sg16
F0.78539816339744828
sg17
F0.78539816339744828
sg18
g8
(g10
S'\x8d\xab]\x85\xeb\x15\xf4\xbf'
tRp623
sg20
I0
ssS'J1701-3006C'
p624
(dp625
g4
F2.552240550270597e-08
sg5
S'1.2e-10'
p626
sg7
g8
(g10
S'\xc6\x8b\xda\xd1cT{>'
tRp627
sg12
I0
sg13
S'131.35687282698'
p628
sg15
F4.4680883723519225
sg16
F0.78539816339744828
sg17
F0.78539816339744828
sg18
g8
(g10
S'\xb6{\xe7\xe8\xa9\xb0\xe0\xbf'
tRp629
sg20
I0
ssS'J0024-7204S'
p630
(dp631
g4
F2.9168463431663967e-08
sg5
S'5.0e-11'
p632
sg7
g8
(g10
S'@\x9b,2\x95\xd24>'
tRp633
sg12
I0
sg13
S'353.30620938559'
p634
sg15
F0.10529654143070231
sg16
F0.78539816339744828
sg17
F0.78539816339744828
sg18
g8
(g10
S'n\xf0e#\x94\x15\xf4\xbf'
tRp635
sg20
I0
ssS'J0024-7204R'
p636
(dp637
g4
F0
sg5
S'9.0e-05'
p638
sg7
g8
(g10
S'\x00\x00\x00\x00\x00\x00\x00\x00'
tRp639
sg12
I0
sg13
S'287.31810'
p640
sg15
F0.10541993132313411
sg16
F0.78539816339744828
sg17
F0.78539816339744828
sg18
g8
(g10
S'\xa8\xd0|\xe3_\x15\xf4\xbf'
tRp641
sg20
I0
ssS'J1701-3006F'
p642
(dp643
g4
F1.0938173786873987e-07
sg5
S'6.0e-10'
p644
sg7
g8
(g10
S'K\xd92\x8f\x84D\xa0>'
tRp645
sg12
I0
sg13
S'435.7816702574'
p646
sg15
F4.4680851842388698
sg16
F0.78539816339744828
sg17
F0.78539816339744828
sg18
g8
(g10
S'\xa8\x86Y!\xf7\xb0\xe0\xbf'
tRp647
sg20
I0
ssS'J0024-7204T'
p648
(dp649
g4
F1.4584231715831983e-07
sg5
S'7.0e-11'
p650
sg7
g8
(g10
S'\xd8\x07\xe7\x8bB8b>'
tRp651
sg12
I0
sg13
S'131.77869947412'
p652
sg15
F0.10562979841752493
sg16
F0.78539816339744828
sg17
F0.78539816339744828
sg18
g8
(g10
S'\xc8]\x05\x81\xa5\x15\xf4\xbf'
tRp653
sg20
I0
ssS'J0024-7204W'
p654
(dp655
g4
F7.2921158579159912e-07
sg5
S'1.9e-04'
p656
sg7
g8
(g10
S'\x8d\xd1\t\xdfk\x85\x93>'
tRp657
sg12
I0
sg13
S'425.10789'
p658
sg15
F0.10544909978656576
sg16
F0.78539816339744828
sg17
F0.78539816339744828
sg18
g8
(g10
S'\xc2\xf1\x910r\x15\xf4\xbf'
tRp659
sg20
I0
ssS'J0024-7204V'
p660
(dp661
g4
F0
sg5
S'5.0e-02'
p662
sg7
g8
(g10
S'\x00\x00\x00\x00\x00\x00\x00\x00'
tRp663
sg12
I0
sg13
S'207.90'
p664
sg15
F0.10541993132313411
sg16
F0.78539816339744828
sg17
F0.78539816339744828
sg18
g8
(g10
S'\xa8\xd0|\xe3_\x15\xf4\xbf'
tRp665
sg20
I0
ssS'J1910+1256'
p666
(dp667
g4
F5.8336926863327923e-10
sg5
S'1.0e-12'
p668
sg7
g8
(g10
S'\xe6S\x02\t\xb3\xfc\x18>'
tRp669
sg12
I0
sg13
S'200.658805375034'
p670
sg15
F5.0322673850506447
sg16
F0.78539816339744828
sg17
F0.78539816339744828
sg18
g8
(g10
S'@q$\x8e\xbf\xe8\xcc?'
tRp671
sg20
I0
ssS'J1824-2452J'
p672
(dp673
g4
F0
sg5
S'0'
sg7
g8
(g10
S'\x00\x00\x00\x00\x00\x00\x00\x00'
tRp674
sg12
I0
sg13
S'247.586036'
p675
sg15
F4.8326900874965348
sg16
F0.78539816339744828
sg17
F0.78539816339744828
sg18
g8
(g10
S'g\x8c\xc6`2\xd6\xd9\xbf'
tRp676
sg20
I0
ssS'J2322+2057'
p677
(dp678
g4
F5.1044811005411929e-09
sg5
S'1.8e-11'
p679
sg7
g8
(g10
S'@\x9b,2\x95\xd2D>'
tRp680
sg12
I0
sg13
S'207.968166802197'
p681
sg15
F6.1357580814540693
sg16
F0.78539816339744828
sg17
F0.78539816339744828
sg18
g8
(g10
S'kH\xf0?\xfcf\xd7?'
tRp682
sg20
I0
ssS'J1748-2446D'
p683
(dp684
g4
F0
sg5
S'0'
sg7
g8
(g10
S'\x00\x00\x00\x00\x00\x00\x00\x00'
tRp685
sg12
I0
sg13
S'212.134969'
p686
sg15
F4.6731378633137473
sg16
F0.78539816339744828
sg17
F0.78539816339744828
sg18
g8
(g10
S'\xa5\xa1\xe9\x82\x1b\xf0\xd9\xbf'
tRp687
sg20
I0
ssS'J0534+2200'
p688
(dp689
g4
F3.6460579289579956e-07
sg5
S'1.0e-07'
p690
sg7
g8
(g10
S'\x8d\xd1\t\xdfk\x85\x93>'
tRp691
sg12
F2.16420827
sg13
S'30.2254370'
p692
sg15
F1.4636715261296163
sg16
F0.00175
sg17
F0.019198621799999999
sg18
g8
(g10
S'\x08\xb20\xbd#\x97\xd8?'
tRp693
sg20
F1.06988683
ssS'J1953+1846A'
p694
(dp695
g4
F0
sg5
S'5.0e-02'
p696
sg7
g8
(g10
S'\x00\x00\x00\x00\x00\x00\x00\x00'
tRp697
sg12
I0
sg13
S'204.58'
p698
sg15
F5.2230509043909077
sg16
F0.78539816339744828
sg17
F0.78539816339744828
sg18
g8
(g10
S'\x12">\xe6\xc0\xf9\xd4?'
tRp699
sg20
I0
ssS'J1905+0400'
p700
(dp701
g4
F1.1667385372665585e-09
sg5
S'1.6e-11'
p702
sg7
g8
(g10
S'\xe6S\x02\t\xb3\xfc(>'
tRp703
sg12
I0
sg13
S'264.242346143483'
p704
sg15
F5.0117453260984197
sg16
F0.78539816339744828
sg17
F0.78539816339744828
sg18
g8
(g10
S'71\x8f\xd6\xbb\xe2\xb1?'
tRp705
sg20
I0
ssS'J1802-2124'
p706
(dp707
g4
F6.5629042721243925e-10
sg5
S'2.0e-12'
p708
sg7
g8
(g10
S'\xe1\xe8B\xcb\xdf;O>'
tRp709
sg12
I0
sg13
S'79.066424229950'
p710
sg15
F4.7344306913426681
sg16
F0.78539816339744828
sg17
F0.78539816339744828
sg18
g8
(g10
S'\xc8h\x95\xbd`\x02\xd7\xbf'
tRp711
sg20
I0
ssS'J1640+2224'
p712
(dp713
g4
F7.2921158579159917e-10
sg5
S'2.0e-12'
p714
sg7
g8
(g10
S'\xe6S\x02\t\xb3\xfc\x18>'
tRp715
sg12
I0
sg13
S'316.1239843132381'
p716
sg15
F4.3764903831733228
sg16
F0.78539816339744828
sg17
F0.78539816339744828
sg18
g8
(g10
S'>s\x81\xb4\x18\x06\xd9?'
tRp717
sg20
I0
ssS'J1748-2446E'
p718
(dp719
g4
F0
sg5
S'0'
sg7
g8
(g10
S'\x00\x00\x00\x00\x00\x00\x00\x00'
tRp720
sg12
I0
sg13
S'455.000455'
p721
sg15
F4.6731378633137473
sg16
F0.78539816339744828
sg17
F0.78539816339744828
sg18
g8
(g10
S'\xa5\xa1\xe9\x82\x1b\xf0\xd9\xbf'
tRp722
sg20
I0
ssS'J1629-6902'
p723
(dp724
g4
F2.9168463431663967e-08
sg5
S'6.0e-11'
p725
sg7
g8
(g10
S'\xe1\xe8B\xcb\xdf;O>'
tRp726
sg12
I0
sg13
S'166.64990604074'
p727
sg15
F4.3277811124007837
sg16
F0.78539816339744828
sg17
F0.78539816339744828
sg18
g8
(g10
S'Z\x84p\xdboA\xf3\xbf'
tRp728
sg20
I0
ssS'J2317+1439'
p729
(dp730
g4
F5.1044811005411929e-09
sg5
S'1.7e-11'
p731
sg7
g8
(g10
S'@\x9b,2\x95\xd2D>'
tRp732
sg12
I0
sg13
S'290.254608266681'
p733
sg15
F6.1129251016188455
sg16
F0.78539816339744828
sg17
F0.78539816339744828
sg18
g8
(g10
S'I,\xef\x84\xb7_\xd0?'
tRp734
sg20
I0
ssS'J1810-2005'
p735
(dp736
g4
F4.3752695147495945e-08
sg5
S'7.0e-12'
p737
sg7
g8
(g10
S'\xcf\xc9\xe0.S\xc6\xa6>'
tRp738
sg12
I0
sg13
S'30.467142155106'
p739
sg15
F4.773345528771844
sg16
F0.78539816339744828
sg17
F0.78539816339744828
sg18
g8
(g10
S'T\x92\x05\xc2\x9b>\xd6\xbf'
tRp740
sg20
I0
ssS'J0737-3039A'
p741
(dp742
g4
F1.8959501230581574e-09
sg5
S'2.0e-12'
p743
sg7
g8
(g10
S'\x9a\xe2V[w\xa8\x00>'
tRp744
sg12
I0
sg13
S'44.054069392744'
p745
sg15
F2.0032352623293948
sg16
F0.78539816339744828
sg17
F0.78539816339744828
sg18
g8
(g10
S'QP\xb6\xd4\xc4b\xe0\xbf'
tRp746
sg20
I0
ssS'J1748-2446U'
p747
(dp748
g4
F0
sg5
S'0'
sg7
g8
(g10
S'\x00\x00\x00\x00\x00\x00\x00\x00'
tRp749
sg12
I0
sg13
S'304.030841'
p750
sg15
F4.6731378633137473
sg16
F0.78539816339744828
sg17
F0.78539816339744828
sg18
g8
(g10
S'\xa5\xa1\xe9\x82\x1b\xf0\xd9\xbf'
tRp751
sg20
I0
ssS'J1342+2822A'
p752
(dp753
g4
F0
sg5
S'1.6e-01'
p754
sg7
g8
(g10
S'\x00\x00\x00\x00\x00\x00\x00\x00'
tRp755
sg12
I0
sg13
S'392.93'
p756
sg15
F3.5972736738685374
sg16
F0.78539816339744828
sg17
F0.78539816339744828
sg18
g8
(g10
S'\xd3\xe8)\xef\x1f\xb2\xdf?'
tRp757
sg20
I0
ssS'J1342+2822B'
p758
(dp759
g4
F7.2921158579159917e-09
sg5
S'1.8e-10'
p760
sg7
g8
(g10
S'@\x9b,2\x95\xd2D>'
tRp761
sg12
I0
sg13
S'418.51147259915'
p762
sg15
F3.5972800253014494
sg16
F0.78539816339744828
sg17
F0.78539816339744828
sg18
g8
(g10
S'\xf7\x8bVz\xc5\xb2\xdf?'
tRp763
sg20
I0
ssS'J1342+2822C'
p764
(dp765
g4
F0
sg5
S'3.0e-01'
p766
sg7
g8
(g10
S'\x00\x00\x00\x00\x00\x00\x00\x00'
tRp767
sg12
I0
sg13
S'461.7'
p768
sg15
F3.5972736738685374
sg16
F0.78539816339744828
sg17
F0.78539816339744828
sg18
g8
(g10
S'\xd3\xe8)\xef\x1f\xb2\xdf?'
tRp769
sg20
I0
ssS'J1342+2822D'
p770
(dp771
g4
F5.1044811005411937e-05
sg5
S'2.0e-06'
p772
sg7
g8
(g10
S'\x9d\x8f\xff\xb2\xa5U\x14?'
tRp773
sg12
I0
sg13
S'183.7230504'
p774
sg15
F3.5972153369416739
sg16
F0.78539816339744828
sg17
F0.78539816339744828
sg18
g8
(g10
S'\xd1\xb4\xc0Eq\xb2\xdf?'
tRp775
sg20
I0
ssS'J2019+2425'
p776
(dp777
g4
F2.1876347573747975e-09
sg5
S'8.0e-12'
p778
sg7
g8
(g10
S'@\x9b,2\x95\xd2$>'
tRp779
sg12
I0
sg13
S'254.160345592754'
p780
sg15
F5.335783296575201
sg16
F0.78539816339744828
sg17
F0.78539816339744828
sg18
g8
(g10
S'\xad\xfd\x8f\xfcFG\xdb?'
tRp781
sg20
I0
ssS'J1738+0333'
p782
(dp783
g4
F3.6460579289579958e-09
sg5
S'1.8e-11'
p784
sg7
g8
(g10
S'@\x9b,2\x95\xd2D>'
tRp785
sg12
I0
sg13
S'170.937372689743'
p786
sg15
F4.6329702034820759
sg16
F0.78539816339744828
sg17
F0.78539816339744828
sg18
g8
(g10
S'hO5\xa0\x00\xc0\xaf?'
tRp787
sg20
I0
ssS'J0900-3144'
p788
(dp789
g4
F9.4797506152907871e-09
sg5
S'1.0e-11'
p790
sg7
g8
(g10
S'\xe1\xe8B\xcb\xdf;O>'
tRp791
sg12
I0
sg13
S'90.011843383453'
p792
sg15
F2.3658506883173525
sg16
F0.78539816339744828
sg17
F0.78539816339744828
sg18
g8
(g10
S'\x1a\r\xce\x9b8\xe6\xe0\xbf'
tRp793
sg20
I0
ssS'J1603-7202'
p794
(dp795
g4
F2.9168463431663967e-09
sg5
S'5.0e-13'
p796
sg7
g8
(g10
S'\xe6S\x02\t\xb3\xfc\x18>'
tRp797
sg12
I0
sg13
S'67.3765811408911'
p798
sg15
F4.2159863550577326
sg16
F0.78539816339744828
sg17
F0.78539816339744828
sg18
g8
(g10
S"\x9a\x1d\xfb2'\x18\xf4\xbf"
tRp799
sg20
I0
ssS'J1643-1224'
p800
(dp801
g4
F5.8336926863327933e-09
sg5
S'7.0e-12'
p802
sg7
g8
(g10
S'\x11\xc2\xb7~:\x07Z>'
tRp803
sg12
I0
sg13
S'216.373337551614'
p804
sg15
F4.3911776621847416
sg16
F0.78539816339744828
sg17
F0.78539816339744828
sg18
g8
(g10
S'q\xe7\xfb\xb7\xd1\xe0\xc9\xbf'
tRp805
sg20
I0
ssS'J1709+2313'
p806
(dp807
g4
F4.3752695147495946e-07
sg5
S'1.0e-11'
p808
sg7
g8
(g10
S'\x11\xc2\xb7~:\x07j>'
tRp809
sg12
I0
sg13
S'215.926931187250'
p810
sg15
F4.5025746900278234
sg16
F0.78539816339744828
sg17
F0.78539816339744828
sg18
g8
(g10
S'\xc5\xddz\xcf \xf1\xd9?'
tRp811
sg20
I0
ssS'J1157-5112'
p812
(dp813
g4
F7.2921158579159915e-08
sg5
S'7.0e-11'
p814
sg7
g8
(g10
S'\x8d\xd1\t\xdfk\x85\x83>'
tRp815
sg12
I0
sg13
S'22.94144832067'
p816
sg15
F3.1376637162564167
sg16
F0.78539816339744828
sg17
F0.78539816339744828
sg18
g8
(g10
S'N,+W\x05]\xec\xbf'
tRp817
sg20
I0
ssS'J1614-23'
p818
(dp819
g4
F0
sg5
S'0'
sg7
g8
(g10
S'\x00\x00\x00\x00\x00\x00\x00\x00'
tRp820
sg12
I0
sg13
S'29.850746'
p821
sg15
F0.071025208456101746
sg16
F0.78539816339744828
sg17
F0.78539816339744828
sg18
g8
(g10
S'1*\xdb +\x1b{\xbf'
tRp822
sg20
I0
ssS'J1841+0130'
p823
(dp824
g4
F5.8336926863327932e-07
sg5
S'4.0e-10'
p825
sg7
g8
(g10
S'\xefE\xcc\xd6\xc6f\xb8>'
tRp826
sg12
I0
sg13
S'33.5877320407'
p827
sg15
F4.9059722787318201
sg16
F0.78539816339744828
sg17
F0.78539816339744828
sg18
g8
(g10
S'\xf8\xfc\x80jd\xe4\x9a?'
tRp828
sg20
I0
ssS'J1803-30'
p829
(dp830
g4
F0
sg5
S'0'
sg7
g8
(g10
S'\x00\x00\x00\x00\x00\x00\x00\x00'
tRp831
sg12
I0
sg13
S'140.825236'
p832
sg15
F4.7409034959813603
sg16
F0.78539816339744828
sg17
F0.78539816339744828
sg18
g8
(g10
S'\x80\xcc\xb1\xcfy\xbc\xe0\xbf'
tRp833
sg20
I0
ssS'J0751+1807'
p834
(dp835
g4
F6.8545889064410309e-09
sg5
S'2.0e-12'
p836
sg7
g8
(g10
S'ccTi\xe4zb>'
tRp837
sg12
I0
sg13
S'287.457858630106'
p838
sg15
F2.0614196834130145
sg16
F0.78539816339744828
sg17
F0.78539816339744828
sg18
g8
(g10
S'c\x89\x10\xf4\x9c?\xd4?'
tRp839
sg20
I0
ssS'J2124-3358'
p840
(dp841
g4
F2.1876347573747975e-09
sg5
S'2.0e-12'
p842
sg7
g8
(g10
S'\x8e\x0c\xd8\xdf\xd0&->'
tRp843
sg12
I0
sg13
S'202.793893879496'
p844
sg15
F5.6210439027785961
sg16
F0.78539816339744828
sg17
F0.78539816339744828
sg18
g8
(g10
S'\x89\xbd\x9d\x91D\xe2\xe1\xbf'
tRp845
sg20
I0
ssS'J1918-0642'
p846
(dp847
g4
F9.4797506152907871e-10
sg5
S'6.0e-13'
p848
sg7
g8
(g10
S'\xe6S\x02\t\xb3\xfc(>'
tRp849
sg12
I0
sg13
S'130.7895141841235'
p850
sg15
F5.0700648856210933
sg16
F0.78539816339744828
sg17
F0.78539816339744828
sg18
g8
(g10
S'\xb1w\xa9\xd8)\xa3\xb7\xbf'
tRp851
sg20
I0
ssS'J1518+0204E'
p852
(dp853
g4
F0
sg5
S'1.0e-01'
p854
sg7
g8
(g10
S'\x00\x00\x00\x00\x00\x00\x00\x00'
tRp855
sg12
I0
sg13
S'314.27'
p856
sg15
F4.0189767339318196
sg16
F0.78539816339744828
sg17
F0.78539816339744828
sg18
g8
(g10
S'#\x89e9\xa4\x9c\xa2?'
tRp857
sg20
I0
ssS'J1518+0204D'
p858
(dp859
g4
F0
sg5
S'1.2e-01'
p860
sg7
g8
(g10
S'\x00\x00\x00\x00\x00\x00\x00\x00'
tRp861
sg12
I0
sg13
S'334.67'
p862
sg15
F4.0189767339318196
sg16
F0.78539816339744828
sg17
F0.78539816339744828
sg18
g8
(g10
S'#\x89e9\xa4\x9c\xa2?'
tRp863
sg20
I0
ssS'J1518+0204C'
p864
(dp865
g4
F0
sg5
S'1.7e-01'
p866
sg7
g8
(g10
S'\x00\x00\x00\x00\x00\x00\x00\x00'
tRp867
sg12
I0
sg13
S'402.58'
p868
sg15
F4.0189767339318196
sg16
F0.78539816339744828
sg17
F0.78539816339744828
sg18
g8
(g10
S'#\x89e9\xa4\x9c\xa2?'
tRp869
sg20
I0
ssS'J1518+0204B'
p870
(dp871
g4
F2.1876347573747973e-07
sg5
S'4.0e-10'
p872
sg7
g8
(g10
S'K\xd92\x8f\x84D\x90>'
tRp873
sg12
I0
sg13
S'125.8345875540'
p874
sg15
F4.0187913683467107
sg16
F0.78539816339744828
sg17
F0.78539816339744828
sg18
g8
(g10
S'#u\xa8.\xbe\xa7\xa2?'
tRp875
sg20
I0
ssS'J1518+0204A'
p876
(dp877
g4
F4.3752695147495945e-08
sg5
S'7.0e-11'
p878
sg7
g8
(g10
S'\x8d\xd1\t\xdfk\x85\x83>'
tRp879
sg12
I0
sg13
S'180.06362469727'
p880
sg15
F4.0189269725332046
sg16
F0.78539816339744828
sg17
F0.78539816339744828
sg18
g8
(g10
S'U\xd4hPk\xaf\xa2?'
tRp881
sg20
I0
ssS'J0711-6830'
p882
(dp883
g4
F1.0938173786873986e-08
sg5
S'4.0e-12'
p884
sg7
g8
(g10
S'\x8e\x0c\xd8\xdf\xd0&->'
tRp885
sg12
I0
sg13
S'182.117234869347'
p886
sg15
F1.8896953682887456
sg16
F0.78539816339744828
sg17
F0.78539816339744828
sg18
g8
(g10
S'\x00\xcam\x85\x8a\xd8\xf2\xbf'
tRp887
sg20
I0
ssS'J1012+5307'
p888
(dp889
g4
F2.1876347573747975e-09
sg5
S'4.0e-12'
p890
sg7
g8
(g10
S'\x9a\xe2V[w\xa8 >'
tRp891
sg12
I0
sg13
S'190.267837621903'
p892
sg15
F2.6801029671663401
sg16
F0.78539816339744828
sg17
F0.78539816339744828
sg18
g8
(g10
S'g\xba\xeb\x8f\x95\xaa\xed?'
tRp893
sg20
I0
ssS'J1216-6410'
p894
(dp895
g4
F6.5629042721243914e-08
sg5
S'1.7e-10'
p896
sg7
g8
(g10
S'@\x9b,2\x95\xd2d>'
tRp897
sg12
I0
sg13
S'282.53570587239'
p898
sg15
F3.2207335749912094
sg16
F0.78539816339744828
sg17
F0.78539816339744828
sg18
g8
(g10
S'Wmh\x8c-\xd3\xf1\xbf'
tRp899
sg20
I0
ssS'J1823-3021A'
p900
(dp901
g4
F2.6251617088497568e-08
sg5
S'1.1e-10'
p902
sg7
g8
(g10
S'xU\xfd$\x8d\xa1\x8c>'
tRp903
sg12
I0
sg13
S'183.82338873035'
p904
sg15
F4.828874634445409
sg16
F0.78539816339744828
sg17
F0.78539816339744828
sg18
g8
(g10
S'\x06\xf6\xe5v\xaf\x8d\xe0\xbf'
tRp905
sg20
I0
ssS'J1125-6014'
p906
(dp907
g4
F2.9168463431663967e-08
sg5
S'1.1e-10'
p908
sg7
g8
(g10
S'@\x9b,2\x95\xd2T>'
tRp909
sg12
I0
sg13
S'380.17309999077'
p910
sg15
F3.0010861781378964
sg16
F0.78539816339744828
sg17
F0.78539816339744828
sg18
g8
(g10
S'\xcf\xeb\x85^\x82\xb0\xf0\xbf'
tRp911
sg20
I0
ssS'J1910-5959C'
p912
(dp913
g4
F2.9168463431663967e-08
sg5
S'6.0e-11'
p914
sg7
g8
(g10
S'@\x9b,2\x95\xd2T>'
tRp915
sg12
I0
sg13
S'189.48987107047'
p916
sg15
F5.0363403030969227
sg16
F0.78539816339744828
sg17
F0.78539816339744828
sg18
g8
(g10
S'\xd9c\xe4\xb9"\xc0\xf0\xbf'
tRp917
sg20
I0
ssS'J2051-0827'
p918
(dp919
g4
F7.2921158579159917e-09
sg5
S'1.0e-11'
p920
sg7
g8
(g10
S'\x11\xc2\xb7~:\x07Z>'
tRp921
sg12
I0
sg13
S'221.796287344250'
p922
sg15
F5.474010128997886
sg16
F0.78539816339744828
sg17
F0.78539816339744828
sg18
g8
(g10
S'\x7f\xc3P\x92\xe9\xd7\xc0\xbf'
tRp923
sg20
I0
ssS'J1740-5340A'
p924
(dp925
g4
F2.9168463431663966e-07
sg5
S'8.0e-10'
p926
sg7
g8
(g10
S'K\xd92\x8f\x84D\xa0>'
tRp927
sg12
I0
sg13
S'273.9479176156'
p928
sg15
F4.6410371671744564
sg16
F0.78539816339744828
sg17
F0.78539816339744828
sg18
g8
(g10
S'\xf19\xa5\xac\xdb8\xed\xbf'
tRp929
sg20
I0
ssS'J1911+1347'
p930
(dp931
g4
F2.1876347573747972e-08
sg5
S'7.0e-11'
p932
sg7
g8
(g10
S'\xd8\x07\xe7\x8bB8b>'
tRp933
sg12
I0
sg13
S'216.17123085389'
p934
sg15
F5.0399608021597988
sg16
F0.78539816339744828
sg17
F0.78539816339744828
sg18
g8
(g10
S'y\x1dd)I\xd0\xce?'
tRp935
sg20
I0
ssS'J1435-6100'
p936
(dp937
g4
F3.6460579289579957e-08
sg5
S'8.0e-11'
p938
sg7
g8
(g10
S'\xd8\x07\xe7\x8bB8b>'
tRp939
sg12
I0
sg13
S'106.97507197376'
p940
sg15
F3.8298394112778258
sg16
F0.78539816339744828
sg17
F0.78539816339744828
sg18
g8
(g10
S'\xab4\x17\xb2\xa8\x07\xf1\xbf'
tRp941
sg20
I0
ssS'J1829+2456'
p942
(dp943
g4
F1.4584231715831983e-08
sg5
S'3.0e-11'
p944
sg7
g8
(g10
S'\xe1\xe8B\xcb\xdf;O>'
tRp945
sg12
I0
sg13
S'24.38440141106'
p946
sg15
F4.8547018350775328
sg16
F0.78539816339744828
sg17
F0.78539816339744828
sg18
g8
(g10
S'\xc0z\xa0\x04@\xdb\xdb?'
tRp947
sg20
I0
ssS'J1748-2446ae'
p948
(dp949
g4
F0
sg5
S'0'
sg7
g8
(g10
S'\x00\x00\x00\x00\x00\x00\x00\x00'
tRp950
sg12
I0
sg13
S'273.329343'
p951
sg15
F4.6731378633137473
sg16
F0.78539816339744828
sg17
F0.78539816339744828
sg18
g8
(g10
S'\xa5\xa1\xe9\x82\x1b\xf0\xd9\xbf'
tRp952
sg20
I0
ssS'J1420-5625'
p953
(dp954
g4
F2.1876347573747973e-07
sg5
S'1.0e-10'
p955
sg7
g8
(g10
S'\x8d\xd1\t\xdfk\x85\x83>'
tRp956
sg12
I0
sg13
S'29.31078830923'
p957
sg15
F3.7629550672722205
sg16
F0.78539816339744828
sg17
F0.78539816339744828
sg18
g8
(g10
S'\xfaoQ}\xf9\x08\xef\xbf'
tRp958
sg20
I0
ssS'J1751-2857'
p959
(dp960
g4
F1.4584231715831983e-08
sg5
S'4.0e-11'
p961
sg7
g8
(g10
S'\x8d\xd1\t\xdfk\x85\x83>'
tRp962
sg12
I0
sg13
S'255.43611500048'
p963
sg15
F4.688297916958299
sg16
F0.78539816339744828
sg17
F0.78539816339744828
sg18
g8
(g10
S'\x96A\xd4\xdba3\xde\xbf'
tRp964
sg20
I0
ssS'J1454-5846'
p965
(dp966
g4
F2.1876347573747973e-07
sg5
S'5.0e-11'
p967
sg7
g8
(g10
S'\x8d\xd1\t\xdfk\x85\x83>'
tRp968
sg12
I0
sg13
S'22.10004678013'
p969
sg15
F3.9122863701839194
sg16
F0.78539816339744828
sg17
F0.78539816339744828
sg18
g8
(g10
S'\xbc\x07\xe5\x1e\xb1\xf5\xef\xbf'
tRp970
sg20
I0
ssS'J1910-5959E'
p971
(dp972
g4
F4.3752695147495945e-08
sg5
S'1.0e-10'
p973
sg7
g8
(g10
S'\xd8\x07\xe7\x8bB8b>'
tRp974
sg12
I0
sg13
S'218.73385758998'
p975
sg15
F5.035363305414279
sg16
F0.78539816339744828
sg17
F0.78539816339744828
sg18
g8
(g10
S'\xb5v\xc4k~3\xf0\xbf'
tRp976
sg20
I0
ssS'J1910-5959D'
p977
(dp978
g4
F3.6460579289579957e-08
sg5
S'5.0e-11'
p979
sg7
g8
(g10
S'\x11\xc2\xb7~:\x07Z>'
tRp980
sg12
I0
sg13
S'110.67719198432'
p981
sg15
F5.0353821992864667
sg16
F0.78539816339744828
sg17
F0.78539816339744828
sg18
g8
(g10
S'(\xe9`-m3\xf0\xbf'
tRp982
sg20
I0
ssS'J1748-2446ah'
p983
(dp984
g4
F0
sg5
S'0'
sg7
g8
(g10
S'\x00\x00\x00\x00\x00\x00\x00\x00'
tRp985
sg12
I0
sg13
S'201.403784'
p986
sg15
F4.6731378633137473
sg16
F0.78539816339744828
sg17
F0.78539816339744828
sg18
g8
(g10
S'\xa5\xa1\xe9\x82\x1b\xf0\xd9\xbf'
tRp987
sg20
I0
ssS'J1910-5959B'
p988
(dp989
g4
F3.6460579289579957e-08
sg5
S'3.0e-11'
p990
sg7
g8
(g10
S'\xe1\xe8B\xcb\xdf;_>'
tRp991
sg12
I0
sg13
S'119.64873284502'
p992
sg15
F5.0353558966245675
sg16
F0.78539816339744828
sg17
F0.78539816339744828
sg18
g8
(g10
S'\xd9^L\xa7\x843\xf0\xbf'
tRp993
sg20
I0
ssS'J1910-5959A'
p994
(dp995
g4
F2.1876347573747975e-09
sg5
S'9.0e-12'
p996
sg7
g8
(g10
S'\xe6S\x02\t\xb3\xfc\x18>'
tRp997
sg12
I0
sg13
S'306.167445835148'
p998
sg15
F5.0390530008229533
sg16
F0.78539816339744828
sg17
F0.78539816339744828
sg18
g8
(g10
S'\xa0Y\xc5H14\xf0\xbf'
tRp999
sg20
I0
ssS'J1748-2446ad'
p1000
(dp1001
g4
F0
sg5
S'4.0e-05'
p1002
sg7
g8
(g10
S'\x00\x00\x00\x00\x00\x00\x00\x00'
tRp1003
sg12
I0
sg13
S'716.35556'
p1004
sg15
F4.6731378633137473
sg16
F0.78539816339744828
sg17
F0.78539816339744828
sg18
g8
(g10
S'\xa5\xa1\xe9\x82\x1b\xf0\xd9\xbf'
tRp1005
sg20
I0
ssS'J1518+4904'
p1006
(dp1007
g4
F1.1667385372665585e-09
sg5
S'3.0e-13'
p1008
sg7
g8
(g10
S'\x91j\xf1^%\xa7\n>'
tRp1009
sg12
I0
sg13
S'24.4289793809236'
p1010
sg15
F4.0177224232084763
sg16
F0.78539816339744828
sg17
F0.78539816339744828
sg18
g8
(g10
S'|\xee\x08\x8c\xc8h\xeb?'
tRp1011
sg20
I0
ssS'J1748-2446af'
p1012
(dp1013
g4
F0
sg5
S'0'
sg7
g8
(g10
S'\x00\x00\x00\x00\x00\x00\x00\x00'
tRp1014
sg12
I0
sg13
S'302.632296'
p1015
sg15
F4.6731378633137473
sg16
F0.78539816339744828
sg17
F0.78539816339744828
sg18
g8
(g10
S'\xa5\xa1\xe9\x82\x1b\xf0\xd9\xbf'
tRp1016
sg20
I0
ssS'J1748-2446ag'
p1017
(dp1018
g4
F0
sg5
S'0'
sg7
g8
(g10
S'\x00\x00\x00\x00\x00\x00\x00\x00'
tRp1019
sg12
I0
sg13
S'224.818628'
p1020
sg15
F4.6731378633137473
sg16
F0.78539816339744828
sg17
F0.78539816339744828
sg18
g8
(g10
S'\xa5\xa1\xe9\x82\x1b\xf0\xd9\xbf'
tRp1021
sg20
I0
ssS'J1959+2048'
p1022
(dp1023
g4
F3.6460579289579958e-09
sg5
S'1.2e-11'
p1024
sg7
g8
(g10
S'\xe6S\x02\t\xb3\xfc(>'
tRp1025
sg12
I0
sg13
S'622.122030511927'
p1026
sg15
F5.2486294504351809
sg16
F0.78539816339744828
sg17
F0.78539816339744828
sg18
g8
(g10
S'\x81\xca\xdbS\x0f=\xd7?'
tRp1027
sg20
I0
ssS'J1748-2446aa'
p1028
(dp1029
g4
F0
sg5
S'0'
sg7
g8
(g10
S'\x00\x00\x00\x00\x00\x00\x00\x00'
tRp1030
sg12
I0
sg13
S'172.770057'
p1031
sg15
F4.6731378633137473
sg16
F0.78539816339744828
sg17
F0.78539816339744828
sg18
g8
(g10
S'\xa5\xa1\xe9\x82\x1b\xf0\xd9\xbf'
tRp1032
sg20
I0
ssS'J1748-2446ab'
p1033
(dp1034
g4
F0
sg5
S'0'
sg7
g8
(g10
S'\x00\x00\x00\x00\x00\x00\x00\x00'
tRp1035
sg12
I0
sg13
S'195.323563'
p1036
sg15
F4.6731378633137473
sg16
F0.78539816339744828
sg17
F0.78539816339744828
sg18
g8
(g10
S'\xa5\xa1\xe9\x82\x1b\xf0\xd9\xbf'
tRp1037
sg20
I0
ssS'J1748-2446ac'
p1038
(dp1039
g4
F0
sg5
S'0'
sg7
g8
(g10
S'\x00\x00\x00\x00\x00\x00\x00\x00'
tRp1040
sg12
I0
sg13
S'196.582994'
p1041
sg15
F4.6731378633137473
sg16
F0.78539816339744828
sg17
F0.78539816339744828
sg18
g8
(g10
S'\xa5\xa1\xe9\x82\x1b\xf0\xd9\xbf'
tRp1042
sg20
I0
ss.