(dp1
S'J1801-1417'
p2
(dp3
S'RAS error'
p4
F3.6460579289579957e-08
sS'FR0 error'
p5
F1.2999999999999999e-10
sS'DEC error'
p6
cnumpy.core.multiarray
scalar
p7
(cnumpy
dtype
p8
(S'f8'
I0
I1
tRp9
(I3
S'<'
NNNI-1
I-1
I0
tbS'K\xd92\x8f\x84D\x90>'
tRp10
sS'POL'
p11
I0
sS'FR0'
p12
F275.85471333794999
sS'RAS'
p13
F4.7333908957083644
sS'POL error'
p14
F1.5707963267948966
sS'INC error'
p15
F3.1415926535897931
sS'DEC'
p16
g7
(g9
S'\xc2\xef\xfc\x056\x9f\xce\xbf'
tRp17
sS'INC'
p18
I0
ssS'J1748-2446Z'
p19
(dp20
g4
F0
sg5
F0
sg6
g7
(g9
S'\x00\x00\x00\x00\x00\x00\x00\x00'
tRp21
sg11
I0
sg12
F406.07652899999999
sg13
F4.6731378633137473
sg14
F1.5707963267948966
sg15
F3.1415926535897931
sg16
g7
(g9
S'\xa5\xa1\xe9\x82\x1b\xf0\xd9\xbf'
tRp22
sg18
I0
ssS'J1618-39'
p23
(dp24
g4
F0.0036460579289579955
sg5
F4.0000000000000003e-05
sg6
g7
(g9
S'\x85s\xbf\x1f\x0fk\t?'
tRp25
sg11
I0
sg12
F83.421530000000004
sg13
F4.2812012201824787
sg14
F1.5707963267948966
sg15
F3.1415926535897931
sg16
g7
(g9
S'\xa2\xe0{i\x90\x0b\x87\xbf'
tRp26
sg18
I0
ssS'J1757-5322'
p27
(dp28
g4
F2.1876347573747972e-08
sg5
F6e-11
sg6
g7
(g9
S'\x11\xc2\xb7~:\x07Z>'
tRp29
sg11
I0
sg12
F112.74006440127
sg13
F4.7132708615311119
sg14
F1.5707963267948966
sg15
F3.1415926535897931
sg16
g7
(g9
S'2Q\xf2\xe4Sd\xed\xbf'
tRp30
sg18
I0
ssS'J1748-2446Y'
p31
(dp32
g4
F0
sg5
F0
sg6
g7
(g9
S'\x00\x00\x00\x00\x00\x00\x00\x00'
tRp33
sg11
I0
sg12
F488.24310600000001
sg13
F4.6731378633137473
sg14
F1.5707963267948966
sg15
F3.1415926535897931
sg16
g7
(g9
S'\xa5\xa1\xe9\x82\x1b\xf0\xd9\xbf'
tRp34
sg18
I0
ssS'J1807-2459B'
p35
(dp36
g4
F3.8648214046954754e-09
sg5
F1.5e-11
sg6
g7
(g9
S'\xf5dO\x85\xbe\x1fv>'
tRp37
sg11
I0
sg12
F238.88143084849901
sg13
F4.7574399152740368
sg14
F1.5707963267948966
sg15
F3.1415926535897931
sg16
g7
(g9
S'\x15\x92\xd0l\xb7\xec\xdb\xbf'
tRp38
sg18
I0
ssS'J1807-2459A'
p39
(dp40
g4
F1.1667385372665585e-09
sg5
F3.9999999999999999e-12
sg6
g7
(g9
S'$>\xc48\x19\xeb`>'
tRp41
sg11
I0
sg12
F326.85626268597798
sg13
F4.7574023167600679
sg14
F1.5707963267948966
sg15
F3.1415926535897931
sg16
g7
(g9
S'\xf2@\xa0\xe1\x85\xb1\xd9\xbf'
tRp42
sg18
I0
ssS'J1300+1240'
p43
(dp44
g4
F7.2921158579159917e-09
sg5
F8.0000000000000002e-13
sg6
g7
(g9
S'\xe6S\x02\t\xb3\xfc\x18>'
tRp45
sg11
I0
sg12
F160.8096586618355
sg13
F3.4129710386125738
sg14
F1.5707963267948966
sg15
F3.1415926535897931
sg16
g7
(g9
S'\x1f\x85\x02\x82(U\xcc?'
tRp46
sg18
I0
ssS'J1024-0719'
p47
(dp48
g4
F2.1876347573747975e-09
sg5
F1.2999999999999999e-10
sg6
g7
(g9
S'@\x9b,2\x95\xd24>'
tRp49
sg11
I0
sg12
F193.71568356844
sg13
F2.7329893845305904
sg14
F1.5707963267948966
sg15
F3.1415926535897931
sg16
g7
(g9
S'\xc6\xf3\x83\xc3n\xd6\xbd\xbf'
tRp50
sg18
I0
ssS'J0218+4232'
p51
(dp52
g4
F1.0208962201082388e-07
sg5
F3e-10
sg6
g7
(g9
S'\xff\xa2U\xe2\xad\x91\x81>'
tRp53
sg11
I0
sg12
F430.46106634569998
sg13
F0.60425031531358031
sg14
F1.5707963267948966
sg15
F3.1415926535897931
sg16
g7
(g9
S'z\xf1\xa2\x19\xff\xc1\xe7?'
tRp54
sg18
I0
ssS'J1744-1134'
p55
(dp56
g4
F2.9168463431663961e-10
sg5
F4.9999999999999999e-13
sg6
g7
(g9
S'\x9a\xe2V[w\xa8\x10>'
tRp57
sg11
I0
sg12
F245.42611974830271
sg13
F4.6574308797597936
sg14
F1.5707963267948966
sg15
F3.1415926535897931
sg16
g7
(g9
S'\xee\xcb\xc1\x1e=F\xc7\xbf'
tRp58
sg18
I0
ssS'J1955+2908'
p59
(dp60
g4
F2.1876347573747975e-09
sg5
F1.9999999999999999e-11
sg6
g7
(g9
S'@\x9b,2\x95\xd2$>'
tRp61
sg11
I0
sg12
F163.04791306911
sg13
F5.2304798203423184
sg14
F1.5707963267948966
sg15
F3.1415926535897931
sg16
g7
(g9
S'V\x07\x85<"G\xe0?'
tRp62
sg18
I0
ssS'J1721-2457'
p63
(dp64
g4
F2.1876347573747972e-08
sg5
F1.5e-11
sg6
g7
(g9
S'\x8d\xd1\t\xdfk\x85\x93>'
tRp65
sg11
I0
sg12
F285.98934350733799
sg13
F4.5550563614182265
sg14
F1.5707963267948966
sg15
F3.1415926535897931
sg16
g7
(g9
S'\x13\xf8\xedm\xc0\xbe\xd9\xbf'
tRp66
sg18
I0
ssS'J1732-5049'
p67
(dp68
g4
F2.9168463431663967e-09
sg5
F3.0000000000000001e-12
sg6
g7
(g9
S'\x94w\x97\x1d\xa4\xe76>'
tRp69
sg11
I0
sg12
F188.23351226543701
sg13
F4.6062667442894627
sg14
F1.5707963267948966
sg15
F3.1415926535897931
sg16
g7
(g9
S'\x05\xc3\xf2\xf5\x18x\xeb\xbf'
tRp70
sg18
I0
ssS'J1302-6350'
p71
(dp72
g4
F7.2921158579159912e-07
sg5
F7.0000000000000004e-11
sg6
g7
(g9
S'K\xd92\x8f\x84D\xa0>'
tRp73
sg11
I0
sg12
F20.936924536669999
sg13
F3.4249354537404799
sg14
F1.5707963267948966
sg15
F3.1415926535897931
sg16
g7
(g9
S'\xbb\x84\x0eb\n\\\xf1\xbf'
tRp74
sg18
I0
ssS'J1537+1155'
p75
(dp76
g4
F2.1876347573747972e-10
sg5
F2.9999999999999998e-14
sg6
g7
(g9
S'==\x13\xb3@R\xf7='
tRp77
sg11
I0
sg12
F26.382133035721829
sg13
F4.1003538536133526
sg14
F1.5707963267948966
sg15
F3.1415926535897931
sg16
g7
(g9
S'\xb9\x04\xe7u\x14\xa8\xca?'
tRp78
sg18
I0
ssS'J0407+1607'
p79
(dp80
g4
F2.1876347573747973e-07
sg5
F3.9999999999999998e-11
sg6
g7
(g9
S'K\xd92\x8f\x84D\xb0>'
tRp81
sg11
I0
sg12
F38.907872826320002
sg13
F1.0846977856743303
sg14
F1.5707963267948966
sg15
F3.1415926535897931
sg16
g7
(g9
S'\x13\xc0\xc9\xa2\xf0\x01\xd2?'
tRp82
sg18
I0
ssS'J1843-1113'
p83
(dp84
g4
F1.4584231715831983e-08
sg5
F1.4000000000000001e-10
sg6
g7
(g9
S'@\x9b,2\x95\xd2t>'
tRp85
sg11
I0
sg12
F541.80975407333995
sg13
F4.9164365561393772
sg14
F1.5707963267948966
sg15
F3.1415926535897931
sg16
g7
(g9
S'\xdeQ\xf2Y(\x12\xc8\xbf'
tRp86
sg18
I0
ssS'J1455-3330'
p87
(dp88
g4
F7.2921158579159915e-08
sg5
F5.0000000000000002e-11
sg6
g7
(g9
S'\x8d\xd1\t\xdfk\x85\x83>'
tRp89
sg11
I0
sg12
F125.20024533089
sg13
F3.919363689477124
sg14
F1.5707963267948966
sg15
F3.1415926535897931
sg16
g7
(g9
S'\xe6\x98\xf4a\xec$\xe2\xbf'
tRp90
sg18
I0
ssS'J2010-1323'
p91
(dp92
g4
F1.4584231715831983e-08
sg5
F3.9999999999999998e-11
sg6
g7
(g9
S'\xe1\xe8B\xcb\xdf;_>'
tRp93
sg11
I0
sg12
F191.45091209930999
sg13
F5.2974246232805005
sg14
F1.5707963267948966
sg15
F3.1415926535897931
sg16
g7
(g9
S'E>\xbb\xd3\xb0&\xcc\xbf'
tRp94
sg18
I0
ssS'J0437-4715'
p95
(dp96
g4
F2.1876347573747972e-10
sg5
F3.0000000000000001e-12
sg6
g7
(g9
S'\x92\x82\xd2\xf7h\xa7\xe8='
tRp97
sg11
I0
sg12
F173.68794618476801
sg13
F1.2131078805776401
sg14
F1.5707963267948966
sg15
F3.1415926535897931
sg16
g7
(g9
S'\xb0\x00\xcc\\\xd5\x1b\xea\xbf'
tRp98
sg18
I0
ssS'J0514-4002A'
p99
(dp100
g4
F1.4584231715831983e-08
sg5
F1.0999999999999999e-10
sg6
g7
(g9
S'@\x9b,2\x95\xd2D>'
tRp101
sg11
I0
sg12
F200.37770740529001
sg13
F1.3743226670693953
sg14
F1.5707963267948966
sg15
F3.1415926535897931
sg16
g7
(g9
S'\x13\xf0\xcc\x11cP\xe6\xbf'
tRp102
sg18
I0
ssS'J1748-2446V'
p103
(dp104
g4
F0
sg5
F0
sg6
g7
(g9
S'\x00\x00\x00\x00\x00\x00\x00\x00'
tRp105
sg11
I0
sg12
F482.50671899999998
sg13
F4.6731378633137473
sg14
F1.5707963267948966
sg15
F3.1415926535897931
sg16
g7
(g9
S'\xa5\xa1\xe9\x82\x1b\xf0\xd9\xbf'
tRp106
sg18
I0
ssS'J1909-3744'
p107
(dp108
g4
F5.8336926863327926e-11
sg5
F1e-13
sg6
g7
(g9
S'\xec\x0f5\x07\\\xfd\xe3='
tRp109
sg11
I0
sg12
F339.31568740949069
sg13
F5.030643805153395
sg14
F1.5707963267948966
sg15
F3.1415926535897931
sg16
g7
(g9
S'\x08][\xd8\xbd@\xe4\xbf'
tRp110
sg18
I0
ssS'J1748-2446W'
p111
(dp112
g4
F0
sg5
F0
sg6
g7
(g9
S'\x00\x00\x00\x00\x00\x00\x00\x00'
tRp113
sg11
I0
sg12
F237.80194900000001
sg13
F4.6731378633137473
sg14
F1.5707963267948966
sg15
F3.1415926535897931
sg16
g7
(g9
S'\xa5\xa1\xe9\x82\x1b\xf0\xd9\xbf'
tRp114
sg18
I0
ssS'J1748-2446T'
p115
(dp116
g4
F0
sg5
F0
sg6
g7
(g9
S'\x00\x00\x00\x00\x00\x00\x00\x00'
tRp117
sg11
I0
sg12
F141.14505299999999
sg13
F4.6731378633137473
sg14
F1.5707963267948966
sg15
F3.1415926535897931
sg16
g7
(g9
S'\xa5\xa1\xe9\x82\x1b\xf0\xd9\xbf'
tRp118
sg18
I0
ssS'J1641+3627D'
p119
(dp120
g4
F0
sg5
F0.11
sg6
g7
(g9
S'\x00\x00\x00\x00\x00\x00\x00\x00'
tRp121
sg11
I0
sg12
F320.72000000000003
sg13
F4.3826345517660901
sg14
F1.5707963267948966
sg15
F3.1415926535897931
sg16
g7
(g9
S'\xf5\xbc^\xa5\xfe\\\xe4?'
tRp122
sg18
I0
ssS'J1641+3627E'
p123
(dp124
g4
F0.00065629042721243916
sg5
F0.17000000000000001
sg6
g7
(g9
S'eP\xaf\xe7\xd2\xc5??'
tRp125
sg11
I0
sg12
F402.08999999999997
sg13
F4.3826345517660901
sg14
F1.5707963267948966
sg15
F3.1415926535897931
sg16
g7
(g9
S'\xf5\xbc^\xa5\xfe\\\xe4?'
tRp126
sg18
I0
ssS'J1641+3627B'
p127
(dp128
g4
F0.00065629042721243916
sg5
F0.00050000000000000001
sg6
g7
(g9
S'eP\xaf\xe7\xd2\xc5??'
tRp129
sg11
I0
sg12
F283.4409
sg13
F4.3826345517660901
sg14
F1.5707963267948966
sg15
F3.1415926535897931
sg16
g7
(g9
S'\xf5\xbc^\xa5\xfe\\\xe4?'
tRp130
sg18
I0
ssS'J1641+3627C'
p131
(dp132
g4
F0
sg5
F0.080000000000000002
sg6
g7
(g9
S'\x00\x00\x00\x00\x00\x00\x00\x00'
tRp133
sg11
I0
sg12
F268.67000000000002
sg13
F4.3826345517660901
sg14
F1.5707963267948966
sg15
F3.1415926535897931
sg16
g7
(g9
S'\xf5\xbc^\xa5\xfe\\\xe4?'
tRp134
sg18
I0
ssS'J1641+3627A'
p135
(dp136
g4
F2.1876347573747973e-07
sg5
F6e-09
sg6
g7
(g9
S'\x8d\xd1\t\xdfk\x85\x93>'
tRp137
sg11
I0
sg12
F96.362234564000005
sg13
F4.3826258012270598
sg14
F1.5707963267948966
sg15
F3.1415926535897931
sg16
g7
(g9
S'\xc1\x19~p#\\\xe4?'
tRp138
sg18
I0
ssS'J1748-2446P'
p139
(dp140
g4
F0
sg5
F0
sg6
g7
(g9
S'\x00\x00\x00\x00\x00\x00\x00\x00'
tRp141
sg11
I0
sg12
F578.49614099999997
sg13
F4.6731378633137473
sg14
F1.5707963267948966
sg15
F3.1415926535897931
sg16
g7
(g9
S'\xa5\xa1\xe9\x82\x1b\xf0\xd9\xbf'
tRp142
sg18
I0
ssS'J1748-2446J'
p143
(dp144
g4
F0
sg5
F0
sg6
g7
(g9
S'\x00\x00\x00\x00\x00\x00\x00\x00'
tRp145
sg11
I0
sg12
F12.447421
sg13
F4.6731378633137473
sg14
F1.5707963267948966
sg15
F3.1415926535897931
sg16
g7
(g9
S'\xa5\xa1\xe9\x82\x1b\xf0\xd9\xbf'
tRp146
sg18
I0
ssS'J1038+0032'
p147
(dp148
g4
F6.5629042721243912e-07
sg5
F1e-10
sg6
g7
(g9
S'\xefE\xcc\xd6\xc6f\xb8>'
tRp149
sg11
I0
sg12
F34.660173349650002
sg13
F2.7933859359742539
sg14
F1.5707963267948966
sg15
F3.1415926535897931
sg16
g7
(g9
S'\x0b!\xdf\x1e\x1e\x7f\x83?'
tRp150
sg18
I0
ssS'J2129+1210F'
p151
(dp152
g4
F3.6460579289579956e-07
sg5
F1e-08
sg6
g7
(g9
S'K\xd92\x8f\x84D\xa0>'
tRp153
sg11
I0
sg12
F248.32118076
sg13
F5.6438918905174669
sg14
F1.5707963267948966
sg15
F3.1415926535897931
sg16
g7
(g9
S'\xf2\xf1\x10\xc5\xb1.\xcb?'
tRp154
sg18
I0
ssS'J2129+1210G'
p155
(dp156
g4
F2.1876347573747971e-06
sg5
F6e-09
sg6
g7
(g9
S'\xefE\xcc\xd6\xc6f\xc8>'
tRp157
sg11
I0
sg12
F26.553254562999999
sg13
F5.6439481856518894
sg14
F1.5707963267948966
sg15
F3.1415926535897931
sg16
g7
(g9
S'03\xb4\x9d\xcd-\xcb?'
tRp158
sg18
I0
ssS'J2129+1210D'
p159
(dp160
g4
F5.1044811005411942e-07
sg5
F1.4e-08
sg6
g7
(g9
S'\xadM\xf5\x86\xdf%\xa5>'
tRp161
sg11
I0
sg12
F208.21168800999999
sg13
F5.6439718121072699
sg14
F1.5707963267948966
sg15
F3.1415926535897931
sg16
g7
(g9
S'M6C\xd90.\xcb?'
tRp162
sg18
I0
ssS'J2129+1210E'
p163
(dp164
g4
F2.9168463431663966e-07
sg5
F6.9999999999999998e-09
sg6
g7
(g9
S'\x11\xc2\xb7~:\x07\x9a>'
tRp165
sg11
I0
sg12
F214.98740790599999
sg13
F5.6439654679664732
sg14
F1.5707963267948966
sg15
F3.1415926535897931
sg16
g7
(g9
S'}\xbe\xabe\x9a/\xcb?'
tRp166
sg18
I0
ssS'J2129+1210C'
p167
(dp168
g4
F7.2921158579159917e-09
sg5
F1.1000000000000001e-11
sg6
g7
(g9
S'@\x9b,2\x95\xd2T>'
tRp169
sg11
I0
sg12
F32.755422697307999
sg13
F5.6441854856861378
sg14
F1.5707963267948966
sg15
F3.1415926535897931
sg16
g7
(g9
S'\xa0\x04ZYM4\xcb?'
tRp170
sg18
I0
ssS'J1939+2134'
p171
(dp172
g4
F1.4584231715831981e-10
sg5
F1.2999999999999999e-12
sg6
g7
(g9
S'\xec\x0f5\x07\\\xfd\xe3='
tRp173
sg11
I0
sg12
F641.92826110680824
sg13
F5.1612545044255018
sg14
F1.5707963267948966
sg15
F3.1415926535897931
sg16
g7
(g9
S'\x80:+\xbe\xc9\x1b\xd8?'
tRp174
sg18
I0
ssS'J2229+2643'
p175
(dp176
g4
F1.4584231715831983e-08
sg5
F6e-11
sg6
g7
(g9
S'@\x9b,2\x95\xd2T>'
tRp177
sg11
I0
sg12
F335.81621348252003
sg13
F5.9059492706411261
sg14
F1.5707963267948966
sg15
F3.1415926535897931
sg16
g7
(g9
S'\xad\xf1\t\xfaX\xdc\xdd?'
tRp178
sg18
I0
ssS'J2140-2310B'
p179
(dp180
g4
F0.0011667385372665586
sg5
F1.4e-05
sg6
g7
(g9
S'w\x89\xc9\xc2TrU?'
tRp181
sg11
I0
sg12
F77.003746000000007
sg13
F5.6894546346632149
sg14
F1.5707963267948966
sg15
F3.1415926535897931
sg16
g7
(g9
S'\x1d^\x8f\x13\x91}\xd9\xbf'
tRp182
sg18
I0
ssS'J1952+3252'
p183
(dp184
g4
F7.2921158579159915e-08
sg5
F6.9999999999999996e-10
sg6
g7
(g9
S'\x11\xc2\xb7~:\x07j>'
tRp185
sg11
I0
sg12
F25.296479255600001
sg13
F5.2195657105377755
sg14
F1.5707963267948966
sg15
F3.1415926535897931
sg16
g7
(g9
S'\xc2\x05pl\xcc\\\xe2?'
tRp186
sg18
I0
ssS'J2140-2310A'
p187
(dp188
g4
F3.3543732946413562e-08
sg5
F6e-11
sg6
g7
(g9
S'q\xafo\xe6T?i>'
tRp189
sg11
I0
sg12
F90.749626746700002
sg13
F5.6894842479457131
sg14
F1.5707963267948966
sg15
F3.1415926535897931
sg16
g7
(g9
S'\xa2\n\xb6\x9al}\xd9\xbf'
tRp190
sg18
I0
ssS'J1804-0735'
p191
(dp192
g4
F1.1667385372665587e-07
sg5
F3.9999999999999998e-11
sg6
g7
(g9
S'kU\x1e7\xf8\xe4\xa1>'
tRp193
sg11
I0
sg12
F43.288440522789998
sg13
F4.7464305843643313
sg14
F1.5707963267948966
sg15
F3.1415926535897931
sg16
g7
(g9
S'y\xf0U\x11\xa9\xa3\xbc\xbf'
tRp194
sg18
I0
ssS'J1853+1303'
p195
(dp196
g4
F5.8336926863327923e-10
sg5
F1.5000000000000001e-12
sg6
g7
(g9
S'\x9a\xe2V[w\xa8\x10>'
tRp197
sg11
I0
sg12
F244.39137786537401
sg13
F4.9613601407881713
sg14
F1.5707963267948966
sg15
F3.1415926535897931
sg16
g7
(g9
S'5W\xfe\xd9k.\xcd?'
tRp198
sg18
I0
ssS'J1045-4509'
p199
(dp200
g4
F3.6460579289579958e-09
sg5
F2e-12
sg6
g7
(g9
S'@\x9b,2\x95\xd2$>'
tRp201
sg11
I0
sg12
F133.793149594456
sg13
F2.8257087142312085
sg14
F1.5707963267948966
sg15
F3.1415926535897931
sg16
g7
(g9
S'S=\x9b\x83b\n\xe9\xbf'
tRp202
sg18
I0
ssS'J1701-3006B'
p203
(dp204
g4
F7.2921158579159915e-08
sg5
F3e-10
sg6
g7
(g9
S']\xf8\x94+\x11\xba\x98>'
tRp205
sg11
I0
sg12
F278.25296218310001
sg13
F4.4680739179198694
sg14
F1.5707963267948966
sg15
F3.1415926535897931
sg16
g7
(g9
S'\xab\xc1\xc9Z\x13\xb1\xe0\xbf'
tRp206
sg18
I0
ssS'J1944+0907'
p207
(dp208
g4
F2.1876347573747975e-09
sg5
F1.2000000000000001e-11
sg6
g7
(g9
S'\xe6S\x02\t\xb3\xfc8>'
tRp209
sg11
I0
sg12
F192.85652101690999
sg13
F5.1809987919152514
sg14
F1.5707963267948966
sg15
F3.1415926535897931
sg16
g7
(g9
S'\\\x07N\x98\x99a\xc4?'
tRp210
sg18
I0
ssS'J0621+1002'
p211
(dp212
g4
F2.1876347573747975e-09
sg5
F1.2999999999999999e-12
sg6
g7
(g9
S'@\x9b,2\x95\xd2D>'
tRp213
sg11
I0
sg12
F34.657407178741202
sg13
F1.6685900506906319
sg14
F1.5707963267948966
sg15
F3.1415926535897931
sg16
g7
(g9
S'\x1a%5&Pp\xc6?'
tRp214
sg18
I0
ssS'J0024-7204P'
p215
(dp216
g4
F0
sg5
F8.0000000000000007e-05
sg6
g7
(g9
S'\x00\x00\x00\x00\x00\x00\x00\x00'
tRp217
sg11
I0
sg12
F274.49745999999999
sg13
F0.10541993132313411
sg14
F1.5707963267948966
sg15
F3.1415926535897931
sg16
g7
(g9
S'\xa8\xd0|\xe3_\x15\xf4\xbf'
tRp218
sg18
I0
ssS'J1312+1810'
p219
(dp220
g4
F0.0014584231715831981
sg5
F3.0000000000000001e-06
sg6
g7
(g9
S'\x85s\xbf\x1f\x0fk\xf9>'
tRp221
sg11
I0
sg12
F30.153936000000002
sg13
F3.4692241194035329
sg14
F1.5707963267948966
sg15
F3.1415926535897931
sg16
g7
(g9
S'^\x08\t\xe1*\xa5u?'
tRp222
sg18
I0
ssS'J1748-2446C'
p223
(dp224
g4
F7.2921158579159912e-07
sg5
F1.5e-09
sg6
g7
(g9
S'\x9d\x8f\xff\xb2\xa5U\xf4>'
tRp225
sg11
I0
sg12
F118.53825305629999
sg13
F4.6731189038125169
sg14
F1.5707963267948966
sg15
F3.1415926535897931
sg16
g7
(g9
S'\xa1\xec\xbc\x85\xd2\xf0\xd9\xbf'
tRp226
sg18
I0
ssS'J1804-2717'
p227
(dp228
g4
F5.9795350034911124e-08
sg5
F7.0000000000000004e-11
sg6
g7
(g9
S'kU\x1e7\xf8\xe4\xb1>'
tRp229
sg11
I0
sg12
F107.03165103913
sg13
F4.7443330655747289
sg14
F1.5707963267948966
sg15
F3.1415926535897931
sg16
g7
(g9
S'Pf\x84\x81G\xd5\xdd\xbf'
tRp230
sg18
I0
ssS'J1453+1902'
p231
(dp232
g4
F7.2921158579159917e-09
sg5
F1.2000000000000001e-11
sg6
g7
(g9
S'\xe1\xe8B\xcb\xdf;O>'
tRp233
sg11
I0
sg12
F172.64291004047499
sg13
F3.9104494497387305
sg14
F1.5707963267948966
sg15
F3.1415926535897931
sg16
g7
(g9
S't\tC\x98\xa4C\xd5?'
tRp234
sg18
I0
ssS'J1701-3006A'
p235
(dp236
g4
F3.5731367703788352e-08
sg5
F1.0999999999999999e-10
sg6
g7
(g9
S'\xa8.r\xd8\xe7l\x87>'
tRp237
sg11
I0
sg12
F190.78267088868
sg13
F4.4680623759588896
sg14
F1.5707963267948966
sg15
F3.1415926535897931
sg16
g7
(g9
S'^@\xac8\xd3\xb1\xe0\xbf'
tRp238
sg18
I0
ssS'J1911-1114'
p239
(dp240
g4
F1.4584231715831983e-08
sg5
F3.9999999999999998e-11
sg6
g7
(g9
S'\x11\xc2\xb7~:\x07z>'
tRp241
sg11
I0
sg12
F275.80534273796002
sg13
F5.0395296922702784
sg14
F1.5707963267948966
sg15
F3.1415926535897931
sg16
g7
(g9
S'\xcd\xfd\x95\xeb\x02\n\xc8\xbf'
tRp242
sg18
I0
ssS'J1713+0747'
p243
(dp244
g4
F4.3752695147495941e-11
sg5
F2.9999999999999998e-13
sg6
g7
(g9
S'\x91j\xf1^%\xa7\xda='
tRp245
sg11
I0
sg12
F218.81184391573211
sg13
F4.5232652326241949
sg14
F1.5707963267948966
sg15
F3.1415926535897931
sg16
g7
(g9
S'\x93]\x94\xe2Ri\xc1?'
tRp246
sg18
I0
ssS'J0024-7204U'
p247
(dp248
g4
F1.4584231715831983e-08
sg5
F1.9999999999999999e-11
sg6
g7
(g9
S'\xed\xbe\xc1F\x86\xbd2>'
tRp249
sg11
I0
sg12
F230.26477221191999
sg13
F0.10572365524073217
sg14
F1.5707963267948966
sg15
F3.1415926535897931
sg16
g7
(g9
S'3Jo\tm\x16\xf4\xbf'
tRp250
sg18
I0
ssS'J0034-0534'
p251
(dp252
g4
F9.4797506152907877e-08
sg5
F6e-11
sg6
g7
(g9
S'\x11\xc2\xb7~:\x07\x8a>'
tRp253
sg11
I0
sg12
F532.71342974901995
sg13
F0.15035089384306799
sg14
F1.5707963267948966
sg15
F3.1415926535897931
sg16
g7
(g9
S'B\xad\x07\xaeK\xc3\xb3\xbf'
tRp254
sg18
I0
ssS'J1748-2446G'
p255
(dp256
g4
F0
sg5
F0
sg6
g7
(g9
S'\x00\x00\x00\x00\x00\x00\x00\x00'
tRp257
sg11
I0
sg12
F46.142764999999997
sg13
F4.6731378633137473
sg14
F1.5707963267948966
sg15
F3.1415926535897931
sg16
g7
(g9
S'\xa5\xa1\xe9\x82\x1b\xf0\xd9\xbf'
tRp258
sg18
I0
ssS'J1701-3006D'
p259
(dp260
g4
F1.0938173786873987e-07
sg5
F1.5e-10
sg6
g7
(g9
S'\xa4\x0f\xef)\xf0\xb3\x99>'
tRp261
sg11
I0
sg12
F292.58840407111001
sg13
F4.4681392115252612
sg14
F1.5707963267948966
sg15
F3.1415926535897931
sg16
g7
(g9
S'\xabo\x19JU\xb1\xe0\xbf'
tRp262
sg18
I0
ssS'J2145-0750'
p263
(dp264
g4
F2.1876347573747975e-09
sg5
F5.9999999999999997e-13
sg6
g7
(g9
S'\x8e\x0c\xd8\xdf\xd0&=>'
tRp265
sg11
I0
sg12
F62.295887856966502
sg13
F5.7134066188452994
sg14
F1.5707963267948966
sg15
F3.1415926535897931
sg16
g7
(g9
S'\x86Pt\x06\xb1\x87\xbb\xbf'
tRp266
sg18
I0
ssS'J1911+0101A'
p267
(dp268
g4
F2.9168463431663967e-09
sg5
F1.5999999999999999e-10
sg6
g7
(g9
S'@\x9b,2\x95\xd2D>'
tRp269
sg11
I0
sg12
F276.35575461663001
sg13
F5.0367438757693277
sg14
F1.5707963267948966
sg15
F3.1415926535897931
sg16
g7
(g9
S'\x9c2m@*\x84\x92?'
tRp270
sg18
I0
ssS'J1911+0101B'
p271
(dp272
g4
F2.9168463431663967e-08
sg5
F4.0000000000000001e-10
sg6
g7
(g9
S'\x11\xc2\xb7~:\x07z>'
tRp273
sg11
I0
sg12
F185.72427720159999
sg13
F5.0368520127430196
sg14
F1.5707963267948966
sg15
F3.1415926535897931
sg16
g7
(g9
S"'\xf3B\x9d\xa2k\x92?"
tRp274
sg18
I0
ssS'J1701-3006E'
p275
(dp276
g4
F1.2396596958457183e-07
sg5
F6.9999999999999996e-10
sg6
g7
(g9
S'kU\x1e7\xf8\xe4\xa1>'
tRp277
sg11
I0
sg12
F309.23971151249998
sg13
F4.4681180862656209
sg14
F1.5707963267948966
sg15
F3.1415926535897931
sg16
g7
(g9
S'\xb1,EA)\xb1\xe0\xbf'
tRp278
sg18
I0
ssS'J1905+0154A'
p279
(dp280
g4
F2.9168463431663964e-05
sg5
F9.9999999999999995e-07
sg6
g7
(g9
S'xe\x1f\xd6\xc3\xf5\x1b?'
tRp281
sg11
I0
sg12
F313.19089719999999
sg13
F5.0108065802304047
sg14
F1.5707963267948966
sg15
F3.1415926535897931
sg16
g7
(g9
S'\xb5y\x15m{\x0f\xa1?'
tRp282
sg18
I0
ssS'J1857+0943'
p283
(dp284
g4
F9.4797506152907871e-10
sg5
F0
sg6
g7
(g9
S'\xe6S\x02\t\xb3\xfc\x18>'
tRp285
sg11
I0
sg12
F186.49407862023219
sg13
F4.9773352513586353
sg14
F1.5707963267948966
sg15
F3.1415926535897931
sg16
g7
(g9
S'B\xe6\xc3]\xcc\xb7\xc5?'
tRp286
sg18
I0
ssS'J1730-2304'
p287
(dp288
g4
F2.1876347573747972e-08
sg5
F2e-12
sg6
g7
(g9
S'\x11\xc2\xb7~:\x07\x9a>'
tRp289
sg11
I0
sg12
F123.110287192301
sg13
F4.5956125429951733
sg14
F1.5707963267948966
sg15
F3.1415926535897931
sg16
g7
(g9
S'\xc3\x04K\xf9h\x9b\xd9\xbf'
tRp290
sg18
I0
ssS'J1824-2452F'
p291
(dp292
g4
F0
sg5
F0
sg6
g7
(g9
S'\x00\x00\x00\x00\x00\x00\x00\x00'
tRp293
sg11
I0
sg12
F407.996736
sg13
F4.8326900874965348
sg14
F1.5707963267948966
sg15
F3.1415926535897931
sg16
g7
(g9
S'g\x8c\xc6`2\xd6\xd9\xbf'
tRp294
sg18
I0
ssS'J0613-0200'
p295
(dp296
g4
F8.0213274437075898e-10
sg5
F3.9999999999999999e-12
sg6
g7
(g9
S'\x9a\xe2V[w\xa8 >'
tRp297
sg11
I0
sg12
F326.60056219018202
sg13
F1.6351822473049218
sg14
F1.5707963267948966
sg15
F3.1415926535897931
sg16
g7
(g9
S'.?/\x95L\xc1\xa1\xbf'
tRp298
sg18
I0
ssS'J1824-2452D'
p299
(dp300
g4
F0
sg5
F0
sg6
g7
(g9
S'\x00\x00\x00\x00\x00\x00\x00\x00'
tRp301
sg11
I0
sg12
F12.526305000000001
sg13
F4.8326900874965348
sg14
F1.5707963267948966
sg15
F3.1415926535897931
sg16
g7
(g9
S'g\x8c\xc6`2\xd6\xd9\xbf'
tRp302
sg18
I0
ssS'J1824-2452E'
p303
(dp304
g4
F0
sg5
F0
sg6
g7
(g9
S'\x00\x00\x00\x00\x00\x00\x00\x00'
tRp305
sg11
I0
sg12
F184.501845
sg13
F4.8326900874965348
sg14
F1.5707963267948966
sg15
F3.1415926535897931
sg16
g7
(g9
S'g\x8c\xc6`2\xd6\xd9\xbf'
tRp306
sg18
I0
ssS'J1824-2452B'
p307
(dp308
g4
F0
sg5
F0
sg6
g7
(g9
S'\x00\x00\x00\x00\x00\x00\x00\x00'
tRp309
sg11
I0
sg12
F152.741714
sg13
F4.8326900874965348
sg14
F1.5707963267948966
sg15
F3.1415926535897931
sg16
g7
(g9
S'g\x8c\xc6`2\xd6\xd9\xbf'
tRp310
sg18
I0
ssS'J1824-2452C'
p311
(dp312
g4
F0
sg5
F0
sg6
g7
(g9
S'\x00\x00\x00\x00\x00\x00\x00\x00'
tRp313
sg11
I0
sg12
F240.44241400000001
sg13
F4.8326900874965348
sg14
F1.5707963267948966
sg15
F3.1415926535897931
sg16
g7
(g9
S'g\x8c\xc6`2\xd6\xd9\xbf'
tRp314
sg18
I0
ssS'J1824-2452A'
p315
(dp316
g4
F1.4584231715831983e-09
sg5
F6e-10
sg6
g7
(g9
S'\xe1\xe8B\xcb\xdf;_>'
tRp317
sg11
I0
sg12
F327.40559469210001
sg13
F4.8326316018105082
sg14
F1.5707963267948966
sg15
F3.1415926535897931
sg16
g7
(g9
S'\xd3T\x19\x06:\xd6\xd9\xbf'
tRp318
sg18
I0
ssS'J1748-2446A'
p319
(dp320
g4
F1.4584231715831983e-07
sg5
F3e-10
sg6
g7
(g9
S'\xefE\xcc\xd6\xc6f\xc8>'
tRp321
sg11
I0
sg12
F86.481636859100007
sg13
F4.6729522789651625
sg14
F1.5707963267948966
sg15
F3.1415926535897931
sg16
g7
(g9
S'\x88\xcb\xa78\xc0\xf0\xd9\xbf'
tRp322
sg18
I0
ssS'J0635+0533'
p323
(dp324
g4
F0.00014584231715831982
sg5
F1.0000000000000001e-05
sg6
g7
(g9
S'\xa3\x96\xcfWK\x10#?'
tRp325
sg11
I0
sg12
F29.536429999999999
sg13
F1.7295440391805148
sg14
F1.5707963267948966
sg15
F3.1415926535897931
sg16
g7
(g9
S'\xde\xca\xb3\xb9\xb0\xcf\xb8?'
tRp326
sg18
I0
ssS'J0537-6910'
p327
(dp328
g4
F8.0213274437075905e-06
sg5
F1.3000000000000001e-09
sg6
g7
(g9
S'\xefE\xcc\xd6\xc6f\xc8>'
tRp329
sg11
I0
sg12
F62.026189595799998
sg13
F1.477923456125803
sg14
F1.5707963267948966
sg15
F3.1415926535897931
sg16
g7
(g9
S'\xbd\x0f\xd9\xe7h8\xf3\xbf'
tRp330
sg18
I0
ssS'J1745-0952'
p331
(dp332
g4
F1.4584231715831983e-08
sg5
F4.9999999999999997e-12
sg6
g7
(g9
S'\x8d\xd1\t\xdfk\x85s>'
tRp333
sg11
I0
sg12
F51.609431233273
sg13
F4.6603281534077068
sg14
F1.5707963267948966
sg15
F3.1415926535897931
sg16
g7
(g9
S'\xe1\x95\xb4\xfa9%\xc2\xbf'
tRp334
sg18
I0
ssS'J1824-2452G'
p335
(dp336
g4
F0
sg5
F0
sg6
g7
(g9
S'\x00\x00\x00\x00\x00\x00\x00\x00'
tRp337
sg11
I0
sg12
F169.233373
sg13
F4.8326900874965348
sg14
F1.5707963267948966
sg15
F3.1415926535897931
sg16
g7
(g9
S'g\x8c\xc6`2\xd6\xd9\xbf'
tRp338
sg18
I0
ssS'J1748-2446F'
p339
(dp340
g4
F0
sg5
F0
sg6
g7
(g9
S'\x00\x00\x00\x00\x00\x00\x00\x00'
tRp341
sg11
I0
sg12
F180.500854
sg13
F4.6731378633137473
sg14
F1.5707963267948966
sg15
F3.1415926535897931
sg16
g7
(g9
S'\xa5\xa1\xe9\x82\x1b\xf0\xd9\xbf'
tRp342
sg18
I0
ssS'J1600-3053'
p343
(dp344
g4
F8.0213274437075898e-10
sg5
F1.7e-12
sg6
g7
(g9
S'@\x9b,2\x95\xd2$>'
tRp345
sg11
I0
sg12
F277.93770709849258
sg13
F4.2040436192444295
sg14
F1.5707963267948966
sg15
F3.1415926535897931
sg16
g7
(g9
S'\xc8\xe0\xe3\x9b\x10A\xe0\xbf'
tRp346
sg18
I0
ssS'J0024-7204I'
p347
(dp348
g4
F2.1876347573747972e-08
sg5
F3.9999999999999998e-11
sg6
g7
(g9
S'@\x9b,2\x95\xd24>'
tRp349
sg11
I0
sg12
F286.94469953063998
sg13
F0.10558495190499874
sg14
F1.5707963267948966
sg15
F3.1415926535897931
sg16
g7
(g9
S'}m\x12\xba\xa1\x15\xf4\xbf'
tRp350
sg18
I0
ssS'J1748-2446X'
p351
(dp352
g4
F0
sg5
F0
sg6
g7
(g9
S'\x00\x00\x00\x00\x00\x00\x00\x00'
tRp353
sg11
I0
sg12
F333.41557599999999
sg13
F4.6731378633137473
sg14
F1.5707963267948966
sg15
F3.1415926535897931
sg16
g7
(g9
S'\xa5\xa1\xe9\x82\x1b\xf0\xd9\xbf'
tRp354
sg18
I0
ssS'J0024-7204J'
p355
(dp356
g4
F2.1876347573747975e-09
sg5
F6.0000000000000003e-12
sg6
g7
(g9
S'\x9a\xe2V[w\xa8\x00>'
tRp357
sg11
I0
sg12
F476.04685844060702
sg13
F0.10496325162935832
sg14
F1.5707963267948966
sg15
F3.1415926535897931
sg16
g7
(g9
S'\xdf\xe2\xa9\x88q\x16\xf4\xbf'
tRp358
sg18
I0
ssS'J0024-7204M'
p359
(dp360
g4
F5.8336926863327933e-08
sg5
F7.0000000000000004e-11
sg6
g7
(g9
S'\xe1\xe8B\xcb\xdf;O>'
tRp361
sg11
I0
sg12
F271.98722878893
sg13
F0.10460450505155436
sg14
F1.5707963267948966
sg15
F3.1415926535897931
sg16
g7
(g9
S'\xe1#^\x18\x9e\x14\xf4\xbf'
tRp362
sg18
I0
ssS'J0024-7204L'
p363
(dp364
g4
F7.2921158579159915e-08
sg5
F7.0000000000000004e-11
sg6
g7
(g9
S'@\x9b,2\x95\xd2T>'
tRp365
sg11
I0
sg12
F230.0877462915
sg13
F0.10528145404299227
sg14
F1.5707963267948966
sg15
F3.1415926535897931
sg16
g7
(g9
S'\x82\xd1\x86\x10J\x15\xf4\xbf'
tRp366
sg18
I0
ssS'J0024-7204O'
p367
(dp368
g4
F7.2921158579159917e-09
sg5
F3e-11
sg6
g7
(g9
S'@\x9b,2\x95\xd2$>'
tRp369
sg11
I0
sg12
F378.30878836036999
sg13
F0.10534563924677366
sg14
F1.5707963267948966
sg15
F3.1415926535897931
sg16
g7
(g9
S'3\xf7\x1f\x1eZ\x15\xf4\xbf'
tRp370
sg18
I0
ssS'J0024-7204N'
p371
(dp372
g4
F2.9168463431663967e-08
sg5
F3.9999999999999998e-11
sg6
g7
(g9
S'@\x9b,2\x95\xd2D>'
tRp373
sg11
I0
sg12
F327.44431861754998
sg13
F0.10567635857727772
sg14
F1.5707963267948966
sg15
F3.1415926535897931
sg16
g7
(g9
S'6\n\x01\x93\xd8\x15\xf4\xbf'
tRp374
sg18
I0
ssS'J1748-2446R'
p375
(dp376
g4
F0
sg5
F0
sg6
g7
(g9
S'\x00\x00\x00\x00\x00\x00\x00\x00'
tRp377
sg11
I0
sg12
F198.864879
sg13
F4.6731378633137473
sg14
F1.5707963267948966
sg15
F3.1415926535897931
sg16
g7
(g9
S'\xa5\xa1\xe9\x82\x1b\xf0\xd9\xbf'
tRp378
sg18
I0
ssS'J1748-2446S'
p379
(dp380
g4
F0
sg5
F0
sg6
g7
(g9
S'\x00\x00\x00\x00\x00\x00\x00\x00'
tRp381
sg11
I0
sg12
F163.488451
sg13
F4.6731378633137473
sg14
F1.5707963267948966
sg15
F3.1415926535897931
sg16
g7
(g9
S'\xa5\xa1\xe9\x82\x1b\xf0\xd9\xbf'
tRp382
sg18
I0
ssS'J0024-7204C'
p383
(dp384
g4
F6.5629042721243921e-09
sg5
F4.9999999999999997e-12
sg6
g7
(g9
S'\x9a\xe2V[w\xa8 >'
tRp385
sg11
I0
sg12
F173.70821896605301
sg13
F0.10430300595850456
sg14
F1.5707963267948966
sg15
F3.1415926535897931
sg16
g7
(g9
S'^\x80\xefJ\xcb\x15\xf4\xbf'
tRp386
sg18
I0
ssS'J1748-2446Q'
p387
(dp388
g4
F0
sg5
F0
sg6
g7
(g9
S'\x00\x00\x00\x00\x00\x00\x00\x00'
tRp389
sg11
I0
sg12
F355.61877700000002
sg13
F4.6731378633137473
sg14
F1.5707963267948966
sg15
F3.1415926535897931
sg16
g7
(g9
S'\xa5\xa1\xe9\x82\x1b\xf0\xd9\xbf'
tRp390
sg18
I0
ssS'J0024-7204E'
p391
(dp392
g4
F7.2921158579159917e-09
sg5
F9.9999999999999994e-12
sg6
g7
(g9
S'\x9a\xe2V[w\xa8 >'
tRp393
sg11
I0
sg12
F282.77910703517
sg13
F0.10581615573038983
sg14
F1.5707963267948966
sg15
F3.1415926535897931
sg16
g7
(g9
S'\x00\xad\xa0\xff\xd3\x14\xf4\xbf'
tRp394
sg18
I0
ssS'J0024-7204D'
p395
(dp396
g4
F5.1044811005411929e-09
sg5
F6.0000000000000003e-12
sg6
g7
(g9
S'\xe6S\x02\t\xb3\xfc\x18>'
tRp397
sg11
I0
sg12
F186.651669856838
sg13
F0.10601856590710435
sg14
F1.5707963267948966
sg15
F3.1415926535897931
sg16
g7
(g9
S'K\x8b;\x85\x8c\x15\xf4\xbf'
tRp398
sg18
I0
ssS'J0024-7204G'
p399
(dp400
g4
F2.1876347573747972e-08
sg5
F1.9999999999999999e-11
sg6
g7
(g9
S'\x8e\x0c\xd8\xdf\xd0&->'
tRp401
sg11
I0
sg12
F247.50152509652
sg13
F0.10558682597877422
sg14
F1.5707963267948966
sg15
F3.1415926535897931
sg16
g7
(g9
S'j\x8fO\x9d\xa1\x15\xf4\xbf'
tRp402
sg18
I0
ssS'J0024-7204F'
p403
(dp404
g4
F7.2921158579159917e-09
sg5
F1.9999999999999999e-11
sg6
g7
(g9
S'@\x9b,2\x95\xd2$>'
tRp405
sg11
I0
sg12
F381.15866365655
sg13
F0.1052874992070385
sg14
F1.5707963267948966
sg15
F3.1415926535897931
sg16
g7
(g9
S'\x16u\xe4\xc6\x91\x15\xf4\xbf'
tRp406
sg18
I0
ssS'J0024-7204Y'
p407
(dp408
g4
F0
sg5
F0
sg6
g7
(g9
S'\x00\x00\x00\x00\x00\x00\x00\x00'
tRp409
sg11
I0
sg12
F455.23658599999999
sg13
F0.10541993132313411
sg14
F1.5707963267948966
sg15
F3.1415926535897931
sg16
g7
(g9
S'\xa8\xd0|\xe3_\x15\xf4\xbf'
tRp410
sg18
I0
ssS'J1748-2446K'
p411
(dp412
g4
F0
sg5
F0
sg6
g7
(g9
S'\x00\x00\x00\x00\x00\x00\x00\x00'
tRp413
sg11
I0
sg12
F336.74002000000002
sg13
F4.6731378633137473
sg14
F1.5707963267948966
sg15
F3.1415926535897931
sg16
g7
(g9
S'\xa5\xa1\xe9\x82\x1b\xf0\xd9\xbf'
tRp414
sg18
I0
ssS'J1748-2446I'
p415
(dp416
g4
F0
sg5
F0
sg6
g7
(g9
S'\x00\x00\x00\x00\x00\x00\x00\x00'
tRp417
sg11
I0
sg12
F104.491133
sg13
F4.6731378633137473
sg14
F1.5707963267948966
sg15
F3.1415926535897931
sg16
g7
(g9
S'\xa5\xa1\xe9\x82\x1b\xf0\xd9\xbf'
tRp418
sg18
I0
ssS'J1748-2446N'
p419
(dp420
g4
F0
sg5
F0
sg6
g7
(g9
S'\x00\x00\x00\x00\x00\x00\x00\x00'
tRp421
sg11
I0
sg12
F115.38150899999999
sg13
F4.6731378633137473
sg14
F1.5707963267948966
sg15
F3.1415926535897931
sg16
g7
(g9
S'\xa5\xa1\xe9\x82\x1b\xf0\xd9\xbf'
tRp422
sg18
I0
ssS'J1748-2446O'
p423
(dp424
g4
F0
sg5
F0
sg6
g7
(g9
S'\x00\x00\x00\x00\x00\x00\x00\x00'
tRp425
sg11
I0
sg12
F596.43451400000004
sg13
F4.6731378633137473
sg14
F1.5707963267948966
sg15
F3.1415926535897931
sg16
g7
(g9
S'\xa5\xa1\xe9\x82\x1b\xf0\xd9\xbf'
tRp426
sg18
I0
ssS'J1748-2446L'
p427
(dp428
g4
F0
sg5
F0
sg6
g7
(g9
S'\x00\x00\x00\x00\x00\x00\x00\x00'
tRp429
sg11
I0
sg12
F445.49383
sg13
F4.6731378633137473
sg14
F1.5707963267948966
sg15
F3.1415926535897931
sg16
g7
(g9
S'\xa5\xa1\xe9\x82\x1b\xf0\xd9\xbf'
tRp430
sg18
I0
ssS'J1748-2446M'
p431
(dp432
g4
F0
sg5
F0
sg6
g7
(g9
S'\x00\x00\x00\x00\x00\x00\x00\x00'
tRp433
sg11
I0
sg12
F280.14578799999998
sg13
F4.6731378633137473
sg14
F1.5707963267948966
sg15
F3.1415926535897931
sg16
g7
(g9
S'\xa5\xa1\xe9\x82\x1b\xf0\xd9\xbf'
tRp434
sg18
I0
ssS'J0024-7204Q'
p435
(dp436
g4
F2.9168463431663967e-08
sg5
F3e-11
sg6
g7
(g9
S'@\x9b,2\x95\xd2D>'
tRp437
sg11
I0
sg12
F247.94323741907999
sg13
F0.10620887262991789
sg14
F1.5707963267948966
sg15
F3.1415926535897931
sg16
g7
(g9
S'\x8d\xab]\x85\xeb\x15\xf4\xbf'
tRp438
sg18
I0
ssS'J1701-3006C'
p439
(dp440
g4
F2.552240550270597e-08
sg5
F1.2e-10
sg6
g7
(g9
S'\xc6\x8b\xda\xd1cT{>'
tRp441
sg11
I0
sg12
F131.35687282698001
sg13
F4.4680883723519225
sg14
F1.5707963267948966
sg15
F3.1415926535897931
sg16
g7
(g9
S'\xb6{\xe7\xe8\xa9\xb0\xe0\xbf'
tRp442
sg18
I0
ssS'J0024-7204S'
p443
(dp444
g4
F2.9168463431663967e-08
sg5
F5.0000000000000002e-11
sg6
g7
(g9
S'@\x9b,2\x95\xd24>'
tRp445
sg11
I0
sg12
F353.30620938559002
sg13
F0.10529654143070231
sg14
F1.5707963267948966
sg15
F3.1415926535897931
sg16
g7
(g9
S'n\xf0e#\x94\x15\xf4\xbf'
tRp446
sg18
I0
ssS'J0024-7204R'
p447
(dp448
g4
F0
sg5
F9.0000000000000006e-05
sg6
g7
(g9
S'\x00\x00\x00\x00\x00\x00\x00\x00'
tRp449
sg11
I0
sg12
F287.31810000000002
sg13
F0.10541993132313411
sg14
F1.5707963267948966
sg15
F3.1415926535897931
sg16
g7
(g9
S'\xa8\xd0|\xe3_\x15\xf4\xbf'
tRp450
sg18
I0
ssS'J1701-3006F'
p451
(dp452
g4
F1.0938173786873987e-07
sg5
F6e-10
sg6
g7
(g9
S'K\xd92\x8f\x84D\xa0>'
tRp453
sg11
I0
sg12
F435.78167025739998
sg13
F4.4680851842388698
sg14
F1.5707963267948966
sg15
F3.1415926535897931
sg16
g7
(g9
S'\xa8\x86Y!\xf7\xb0\xe0\xbf'
tRp454
sg18
I0
ssS'J0024-7204T'
p455
(dp456
g4
F1.4584231715831983e-07
sg5
F7.0000000000000004e-11
sg6
g7
(g9
S'\xd8\x07\xe7\x8bB8b>'
tRp457
sg11
I0
sg12
F131.77869947412
sg13
F0.10562979841752493
sg14
F1.5707963267948966
sg15
F3.1415926535897931
sg16
g7
(g9
S'\xc8]\x05\x81\xa5\x15\xf4\xbf'
tRp458
sg18
I0
ssS'J0024-7204W'
p459
(dp460
g4
F7.2921158579159912e-07
sg5
F0.00019000000000000001
sg6
g7
(g9
S'\x8d\xd1\t\xdfk\x85\x93>'
tRp461
sg11
I0
sg12
F425.10789
sg13
F0.10544909978656576
sg14
F1.5707963267948966
sg15
F3.1415926535897931
sg16
g7
(g9
S'\xc2\xf1\x910r\x15\xf4\xbf'
tRp462
sg18
I0
ssS'J0024-7204V'
p463
(dp464
g4
F0
sg5
F0.050000000000000003
sg6
g7
(g9
S'\x00\x00\x00\x00\x00\x00\x00\x00'
tRp465
sg11
I0
sg12
F207.90000000000001
sg13
F0.10541993132313411
sg14
F1.5707963267948966
sg15
F3.1415926535897931
sg16
g7
(g9
S'\xa8\xd0|\xe3_\x15\xf4\xbf'
tRp466
sg18
I0
ssS'J1910+1256'
p467
(dp468
g4
F5.8336926863327923e-10
sg5
F9.9999999999999998e-13
sg6
g7
(g9
S'\xe6S\x02\t\xb3\xfc\x18>'
tRp469
sg11
I0
sg12
F200.65880537503401
sg13
F5.0322673850506447
sg14
F1.5707963267948966
sg15
F3.1415926535897931
sg16
g7
(g9
S'@q$\x8e\xbf\xe8\xcc?'
tRp470
sg18
I0
ssS'J1824-2452J'
p471
(dp472
g4
F0
sg5
F0
sg6
g7
(g9
S'\x00\x00\x00\x00\x00\x00\x00\x00'
tRp473
sg11
I0
sg12
F247.58603600000001
sg13
F4.8326900874965348
sg14
F1.5707963267948966
sg15
F3.1415926535897931
sg16
g7
(g9
S'g\x8c\xc6`2\xd6\xd9\xbf'
tRp474
sg18
I0
ssS'J2322+2057'
p475
(dp476
g4
F5.1044811005411929e-09
sg5
F1.7999999999999999e-11
sg6
g7
(g9
S'@\x9b,2\x95\xd2D>'
tRp477
sg11
I0
sg12
F207.968166802197
sg13
F6.1357580814540693
sg14
F1.5707963267948966
sg15
F3.1415926535897931
sg16
g7
(g9
S'kH\xf0?\xfcf\xd7?'
tRp478
sg18
I0
ssS'J1748-2446D'
p479
(dp480
g4
F0
sg5
F0
sg6
g7
(g9
S'\x00\x00\x00\x00\x00\x00\x00\x00'
tRp481
sg11
I0
sg12
F212.13496900000001
sg13
F4.6731378633137473
sg14
F1.5707963267948966
sg15
F3.1415926535897931
sg16
g7
(g9
S'\xa5\xa1\xe9\x82\x1b\xf0\xd9\xbf'
tRp482
sg18
I0
ssS'J0534+2200'
p483
(dp484
g4
F3.6460579289579956e-07
sg5
F9.9999999999999995e-08
sg6
g7
(g9
S'\x8d\xd1\t\xdfk\x85\x93>'
tRp485
sg11
F2.16420827
sg12
F30.225436999999999
sg13
F1.4636715261296163
sg14
F0.00175
sg15
F0.019198621799999999
sg16
g7
(g9
S'\x08\xb20\xbd#\x97\xd8?'
tRp486
sg18
F1.06988683
ssS'J1953+1846A'
p487
(dp488
g4
F0
sg5
F0.050000000000000003
sg6
g7
(g9
S'\x00\x00\x00\x00\x00\x00\x00\x00'
tRp489
sg11
I0
sg12
F204.58000000000001
sg13
F5.2230509043909077
sg14
F1.5707963267948966
sg15
F3.1415926535897931
sg16
g7
(g9
S'\x12">\xe6\xc0\xf9\xd4?'
tRp490
sg18
I0
ssS'J1905+0400'
p491
(dp492
g4
F1.1667385372665585e-09
sg5
F1.6e-11
sg6
g7
(g9
S'\xe6S\x02\t\xb3\xfc(>'
tRp493
sg11
I0
sg12
F264.24234614348302
sg13
F5.0117453260984197
sg14
F1.5707963267948966
sg15
F3.1415926535897931
sg16
g7
(g9
S'71\x8f\xd6\xbb\xe2\xb1?'
tRp494
sg18
I0
ssS'J1802-2124'
p495
(dp496
g4
F6.5629042721243925e-10
sg5
F2e-12
sg6
g7
(g9
S'\xe1\xe8B\xcb\xdf;O>'
tRp497
sg11
I0
sg12
F79.066424229950002
sg13
F4.7344306913426681
sg14
F1.5707963267948966
sg15
F3.1415926535897931
sg16
g7
(g9
S'\xc8h\x95\xbd`\x02\xd7\xbf'
tRp498
sg18
I0
ssS'J1640+2224'
p499
(dp500
g4
F7.2921158579159917e-10
sg5
F2e-12
sg6
g7
(g9
S'\xe6S\x02\t\xb3\xfc\x18>'
tRp501
sg11
I0
sg12
F316.12398431323811
sg13
F4.3764903831733228
sg14
F1.5707963267948966
sg15
F3.1415926535897931
sg16
g7
(g9
S'>s\x81\xb4\x18\x06\xd9?'
tRp502
sg18
I0
ssS'J1748-2446E'
p503
(dp504
g4
F0
sg5
F0
sg6
g7
(g9
S'\x00\x00\x00\x00\x00\x00\x00\x00'
tRp505
sg11
I0
sg12
F455.00045499999999
sg13
F4.6731378633137473
sg14
F1.5707963267948966
sg15
F3.1415926535897931
sg16
g7
(g9
S'\xa5\xa1\xe9\x82\x1b\xf0\xd9\xbf'
tRp506
sg18
I0
ssS'J1629-6902'
p507
(dp508
g4
F2.9168463431663967e-08
sg5
F6e-11
sg6
g7
(g9
S'\xe1\xe8B\xcb\xdf;O>'
tRp509
sg11
I0
sg12
F166.64990604074001
sg13
F4.3277811124007837
sg14
F1.5707963267948966
sg15
F3.1415926535897931
sg16
g7
(g9
S'Z\x84p\xdboA\xf3\xbf'
tRp510
sg18
I0
ssS'J2317+1439'
p511
(dp512
g4
F5.1044811005411929e-09
sg5
F1.6999999999999999e-11
sg6
g7
(g9
S'@\x9b,2\x95\xd2D>'
tRp513
sg11
I0
sg12
F290.25460826668098
sg13
F6.1129251016188455
sg14
F1.5707963267948966
sg15
F3.1415926535897931
sg16
g7
(g9
S'I,\xef\x84\xb7_\xd0?'
tRp514
sg18
I0
ssS'J1810-2005'
p515
(dp516
g4
F4.3752695147495945e-08
sg5
F7.0000000000000001e-12
sg6
g7
(g9
S'\xcf\xc9\xe0.S\xc6\xa6>'
tRp517
sg11
I0
sg12
F30.467142155106
sg13
F4.773345528771844
sg14
F1.5707963267948966
sg15
F3.1415926535897931
sg16
g7
(g9
S'T\x92\x05\xc2\x9b>\xd6\xbf'
tRp518
sg18
I0
ssS'J0737-3039A'
p519
(dp520
g4
F1.8959501230581574e-09
sg5
F2e-12
sg6
g7
(g9
S'\x9a\xe2V[w\xa8\x00>'
tRp521
sg11
I0
sg12
F44.054069392743997
sg13
F2.0032352623293948
sg14
F1.5707963267948966
sg15
F3.1415926535897931
sg16
g7
(g9
S'QP\xb6\xd4\xc4b\xe0\xbf'
tRp522
sg18
I0
ssS'J1748-2446U'
p523
(dp524
g4
F0
sg5
F0
sg6
g7
(g9
S'\x00\x00\x00\x00\x00\x00\x00\x00'
tRp525
sg11
I0
sg12
F304.03084100000001
sg13
F4.6731378633137473
sg14
F1.5707963267948966
sg15
F3.1415926535897931
sg16
g7
(g9
S'\xa5\xa1\xe9\x82\x1b\xf0\xd9\xbf'
tRp526
sg18
I0
ssS'J1342+2822A'
p527
(dp528
g4
F0
sg5
F0.16
sg6
g7
(g9
S'\x00\x00\x00\x00\x00\x00\x00\x00'
tRp529
sg11
I0
sg12
F392.93000000000001
sg13
F3.5972736738685374
sg14
F1.5707963267948966
sg15
F3.1415926535897931
sg16
g7
(g9
S'\xd3\xe8)\xef\x1f\xb2\xdf?'
tRp530
sg18
I0
ssS'J1342+2822B'
p531
(dp532
g4
F7.2921158579159917e-09
sg5
F1.8e-10
sg6
g7
(g9
S'@\x9b,2\x95\xd2D>'
tRp533
sg11
I0
sg12
F418.51147259915001
sg13
F3.5972800253014494
sg14
F1.5707963267948966
sg15
F3.1415926535897931
sg16
g7
(g9
S'\xf7\x8bVz\xc5\xb2\xdf?'
tRp534
sg18
I0
ssS'J1342+2822C'
p535
(dp536
g4
F0
sg5
F0.29999999999999999
sg6
g7
(g9
S'\x00\x00\x00\x00\x00\x00\x00\x00'
tRp537
sg11
I0
sg12
F461.69999999999999
sg13
F3.5972736738685374
sg14
F1.5707963267948966
sg15
F3.1415926535897931
sg16
g7
(g9
S'\xd3\xe8)\xef\x1f\xb2\xdf?'
tRp538
sg18
I0
ssS'J1342+2822D'
p539
(dp540
g4
F5.1044811005411937e-05
sg5
F1.9999999999999999e-06
sg6
g7
(g9
S'\x9d\x8f\xff\xb2\xa5U\x14?'
tRp541
sg11
I0
sg12
F183.72305040000001
sg13
F3.5972153369416739
sg14
F1.5707963267948966
sg15
F3.1415926535897931
sg16
g7
(g9
S'\xd1\xb4\xc0Eq\xb2\xdf?'
tRp542
sg18
I0
ssS'J2019+2425'
p543
(dp544
g4
F2.1876347573747975e-09
sg5
F7.9999999999999998e-12
sg6
g7
(g9
S'@\x9b,2\x95\xd2$>'
tRp545
sg11
I0
sg12
F254.160345592754
sg13
F5.335783296575201
sg14
F1.5707963267948966
sg15
F3.1415926535897931
sg16
g7
(g9
S'\xad\xfd\x8f\xfcFG\xdb?'
tRp546
sg18
I0
ssS'J1738+0333'
p547
(dp548
g4
F3.6460579289579958e-09
sg5
F1.7999999999999999e-11
sg6
g7
(g9
S'@\x9b,2\x95\xd2D>'
tRp549
sg11
I0
sg12
F170.937372689743
sg13
F4.6329702034820759
sg14
F1.5707963267948966
sg15
F3.1415926535897931
sg16
g7
(g9
S'hO5\xa0\x00\xc0\xaf?'
tRp550
sg18
I0
ssS'J0900-3144'
p551
(dp552
g4
F9.4797506152907871e-09
sg5
F9.9999999999999994e-12
sg6
g7
(g9
S'\xe1\xe8B\xcb\xdf;O>'
tRp553
sg11
I0
sg12
F90.011843383452998
sg13
F2.3658506883173525
sg14
F1.5707963267948966
sg15
F3.1415926535897931
sg16
g7
(g9
S'\x1a\r\xce\x9b8\xe6\xe0\xbf'
tRp554
sg18
I0
ssS'J1603-7202'
p555
(dp556
g4
F2.9168463431663967e-09
sg5
F4.9999999999999999e-13
sg6
g7
(g9
S'\xe6S\x02\t\xb3\xfc\x18>'
tRp557
sg11
I0
sg12
F67.376581140891105
sg13
F4.2159863550577326
sg14
F1.5707963267948966
sg15
F3.1415926535897931
sg16
g7
(g9
S"\x9a\x1d\xfb2'\x18\xf4\xbf"
tRp558
sg18
I0
ssS'J1643-1224'
p559
(dp560
g4
F5.8336926863327933e-09
sg5
F7.0000000000000001e-12
sg6
g7
(g9
S'\x11\xc2\xb7~:\x07Z>'
tRp561
sg11
I0
sg12
F216.37333755161399
sg13
F4.3911776621847416
sg14
F1.5707963267948966
sg15
F3.1415926535897931
sg16
g7
(g9
S'q\xe7\xfb\xb7\xd1\xe0\xc9\xbf'
tRp562
sg18
I0
ssS'J1709+2313'
p563
(dp564
g4
F4.3752695147495946e-07
sg5
F9.9999999999999994e-12
sg6
g7
(g9
S'\x11\xc2\xb7~:\x07j>'
tRp565
sg11
I0
sg12
F215.92693118725001
sg13
F4.5025746900278234
sg14
F1.5707963267948966
sg15
F3.1415926535897931
sg16
g7
(g9
S'\xc5\xddz\xcf \xf1\xd9?'
tRp566
sg18
I0
ssS'J1157-5112'
p567
(dp568
g4
F7.2921158579159915e-08
sg5
F7.0000000000000004e-11
sg6
g7
(g9
S'\x8d\xd1\t\xdfk\x85\x83>'
tRp569
sg11
I0
sg12
F22.941448320669998
sg13
F3.1376637162564167
sg14
F1.5707963267948966
sg15
F3.1415926535897931
sg16
g7
(g9
S'N,+W\x05]\xec\xbf'
tRp570
sg18
I0
ssS'J1614-23'
p571
(dp572
g4
F0
sg5
F0
sg6
g7
(g9
S'\x00\x00\x00\x00\x00\x00\x00\x00'
tRp573
sg11
I0
sg12
F29.850746000000001
sg13
F0.071025208456101746
sg14
F1.5707963267948966
sg15
F3.1415926535897931
sg16
g7
(g9
S'1*\xdb +\x1b{\xbf'
tRp574
sg18
I0
ssS'J1841+0130'
p575
(dp576
g4
F5.8336926863327932e-07
sg5
F4.0000000000000001e-10
sg6
g7
(g9
S'\xefE\xcc\xd6\xc6f\xb8>'
tRp577
sg11
I0
sg12
F33.587732040699997
sg13
F4.9059722787318201
sg14
F1.5707963267948966
sg15
F3.1415926535897931
sg16
g7
(g9
S'\xf8\xfc\x80jd\xe4\x9a?'
tRp578
sg18
I0
ssS'J1803-30'
p579
(dp580
g4
F0
sg5
F0
sg6
g7
(g9
S'\x00\x00\x00\x00\x00\x00\x00\x00'
tRp581
sg11
I0
sg12
F140.82523599999999
sg13
F4.7409034959813603
sg14
F1.5707963267948966
sg15
F3.1415926535897931
sg16
g7
(g9
S'\x80\xcc\xb1\xcfy\xbc\xe0\xbf'
tRp582
sg18
I0
ssS'J0751+1807'
p583
(dp584
g4
F6.8545889064410309e-09
sg5
F2e-12
sg6
g7
(g9
S'ccTi\xe4zb>'
tRp585
sg11
I0
sg12
F287.45785863010599
sg13
F2.0614196834130145
sg14
F1.5707963267948966
sg15
F3.1415926535897931
sg16
g7
(g9
S'c\x89\x10\xf4\x9c?\xd4?'
tRp586
sg18
I0
ssS'J2124-3358'
p587
(dp588
g4
F2.1876347573747975e-09
sg5
F2e-12
sg6
g7
(g9
S'\x8e\x0c\xd8\xdf\xd0&->'
tRp589
sg11
I0
sg12
F202.79389387949601
sg13
F5.6210439027785961
sg14
F1.5707963267948966
sg15
F3.1415926535897931
sg16
g7
(g9
S'\x89\xbd\x9d\x91D\xe2\xe1\xbf'
tRp590
sg18
I0
ssS'J1918-0642'
p591
(dp592
g4
F9.4797506152907871e-10
sg5
F5.9999999999999997e-13
sg6
g7
(g9
S'\xe6S\x02\t\xb3\xfc(>'
tRp593
sg11
I0
sg12
F130.7895141841235
sg13
F5.0700648856210933
sg14
F1.5707963267948966
sg15
F3.1415926535897931
sg16
g7
(g9
S'\xb1w\xa9\xd8)\xa3\xb7\xbf'
tRp594
sg18
I0
ssS'J1518+0204E'
p595
(dp596
g4
F0
sg5
F0.10000000000000001
sg6
g7
(g9
S'\x00\x00\x00\x00\x00\x00\x00\x00'
tRp597
sg11
I0
sg12
F314.26999999999998
sg13
F4.0189767339318196
sg14
F1.5707963267948966
sg15
F3.1415926535897931
sg16
g7
(g9
S'#\x89e9\xa4\x9c\xa2?'
tRp598
sg18
I0
ssS'J1518+0204D'
p599
(dp600
g4
F0
sg5
F0.12
sg6
g7
(g9
S'\x00\x00\x00\x00\x00\x00\x00\x00'
tRp601
sg11
I0
sg12
F334.67000000000002
sg13
F4.0189767339318196
sg14
F1.5707963267948966
sg15
F3.1415926535897931
sg16
g7
(g9
S'#\x89e9\xa4\x9c\xa2?'
tRp602
sg18
I0
ssS'J1518+0204C'
p603
(dp604
g4
F0
sg5
F0.17000000000000001
sg6
g7
(g9
S'\x00\x00\x00\x00\x00\x00\x00\x00'
tRp605
sg11
I0
sg12
F402.57999999999998
sg13
F4.0189767339318196
sg14
F1.5707963267948966
sg15
F3.1415926535897931
sg16
g7
(g9
S'#\x89e9\xa4\x9c\xa2?'
tRp606
sg18
I0
ssS'J1518+0204B'
p607
(dp608
g4
F2.1876347573747973e-07
sg5
F4.0000000000000001e-10
sg6
g7
(g9
S'K\xd92\x8f\x84D\x90>'
tRp609
sg11
I0
sg12
F125.834587554
sg13
F4.0187913683467107
sg14
F1.5707963267948966
sg15
F3.1415926535897931
sg16
g7
(g9
S'#u\xa8.\xbe\xa7\xa2?'
tRp610
sg18
I0
ssS'J1518+0204A'
p611
(dp612
g4
F4.3752695147495945e-08
sg5
F7.0000000000000004e-11
sg6
g7
(g9
S'\x8d\xd1\t\xdfk\x85\x83>'
tRp613
sg11
I0
sg12
F180.06362469727
sg13
F4.0189269725332046
sg14
F1.5707963267948966
sg15
F3.1415926535897931
sg16
g7
(g9
S'U\xd4hPk\xaf\xa2?'
tRp614
sg18
I0
ssS'J0711-6830'
p615
(dp616
g4
F1.0938173786873986e-08
sg5
F3.9999999999999999e-12
sg6
g7
(g9
S'\x8e\x0c\xd8\xdf\xd0&->'
tRp617
sg11
I0
sg12
F182.11723486934699
sg13
F1.8896953682887456
sg14
F1.5707963267948966
sg15
F3.1415926535897931
sg16
g7
(g9
S'\x00\xcam\x85\x8a\xd8\xf2\xbf'
tRp618
sg18
I0
ssS'J1012+5307'
p619
(dp620
g4
F2.1876347573747975e-09
sg5
F3.9999999999999999e-12
sg6
g7
(g9
S'\x9a\xe2V[w\xa8 >'
tRp621
sg11
I0
sg12
F190.267837621903
sg13
F2.6801029671663401
sg14
F1.5707963267948966
sg15
F3.1415926535897931
sg16
g7
(g9
S'g\xba\xeb\x8f\x95\xaa\xed?'
tRp622
sg18
I0
ssS'J1216-6410'
p623
(dp624
g4
F6.5629042721243914e-08
sg5
F1.7000000000000001e-10
sg6
g7
(g9
S'@\x9b,2\x95\xd2d>'
tRp625
sg11
I0
sg12
F282.53570587239
sg13
F3.2207335749912094
sg14
F1.5707963267948966
sg15
F3.1415926535897931
sg16
g7
(g9
S'Wmh\x8c-\xd3\xf1\xbf'
tRp626
sg18
I0
ssS'J1823-3021A'
p627
(dp628
g4
F2.6251617088497568e-08
sg5
F1.0999999999999999e-10
sg6
g7
(g9
S'xU\xfd$\x8d\xa1\x8c>'
tRp629
sg11
I0
sg12
F183.82338873034999
sg13
F4.828874634445409
sg14
F1.5707963267948966
sg15
F3.1415926535897931
sg16
g7
(g9
S'\x06\xf6\xe5v\xaf\x8d\xe0\xbf'
tRp630
sg18
I0
ssS'J1125-6014'
p631
(dp632
g4
F2.9168463431663967e-08
sg5
F1.0999999999999999e-10
sg6
g7
(g9
S'@\x9b,2\x95\xd2T>'
tRp633
sg11
I0
sg12
F380.17309999077003
sg13
F3.0010861781378964
sg14
F1.5707963267948966
sg15
F3.1415926535897931
sg16
g7
(g9
S'\xcf\xeb\x85^\x82\xb0\xf0\xbf'
tRp634
sg18
I0
ssS'J1910-5959C'
p635
(dp636
g4
F2.9168463431663967e-08
sg5
F6e-11
sg6
g7
(g9
S'@\x9b,2\x95\xd2T>'
tRp637
sg11
I0
sg12
F189.48987107047
sg13
F5.0363403030969227
sg14
F1.5707963267948966
sg15
F3.1415926535897931
sg16
g7
(g9
S'\xd9c\xe4\xb9"\xc0\xf0\xbf'
tRp638
sg18
I0
ssS'J2051-0827'
p639
(dp640
g4
F7.2921158579159917e-09
sg5
F9.9999999999999994e-12
sg6
g7
(g9
S'\x11\xc2\xb7~:\x07Z>'
tRp641
sg11
I0
sg12
F221.79628734425
sg13
F5.474010128997886
sg14
F1.5707963267948966
sg15
F3.1415926535897931
sg16
g7
(g9
S'\x7f\xc3P\x92\xe9\xd7\xc0\xbf'
tRp642
sg18
I0
ssS'J1740-5340A'
p643
(dp644
g4
F2.9168463431663966e-07
sg5
F8.0000000000000003e-10
sg6
g7
(g9
S'K\xd92\x8f\x84D\xa0>'
tRp645
sg11
I0
sg12
F273.94791761559998
sg13
F4.6410371671744564
sg14
F1.5707963267948966
sg15
F3.1415926535897931
sg16
g7
(g9
S'\xf19\xa5\xac\xdb8\xed\xbf'
tRp646
sg18
I0
ssS'J1911+1347'
p647
(dp648
g4
F2.1876347573747972e-08
sg5
F7.0000000000000004e-11
sg6
g7
(g9
S'\xd8\x07\xe7\x8bB8b>'
tRp649
sg11
I0
sg12
F216.17123085388999
sg13
F5.0399608021597988
sg14
F1.5707963267948966
sg15
F3.1415926535897931
sg16
g7
(g9
S'y\x1dd)I\xd0\xce?'
tRp650
sg18
I0
ssS'J1435-6100'
p651
(dp652
g4
F3.6460579289579957e-08
sg5
F7.9999999999999995e-11
sg6
g7
(g9
S'\xd8\x07\xe7\x8bB8b>'
tRp653
sg11
I0
sg12
F106.97507197376
sg13
F3.8298394112778258
sg14
F1.5707963267948966
sg15
F3.1415926535897931
sg16
g7
(g9
S'\xab4\x17\xb2\xa8\x07\xf1\xbf'
tRp654
sg18
I0
ssS'J1829+2456'
p655
(dp656
g4
F1.4584231715831983e-08
sg5
F3e-11
sg6
g7
(g9
S'\xe1\xe8B\xcb\xdf;O>'
tRp657
sg11
I0
sg12
F24.384401411060001
sg13
F4.8547018350775328
sg14
F1.5707963267948966
sg15
F3.1415926535897931
sg16
g7
(g9
S'\xc0z\xa0\x04@\xdb\xdb?'
tRp658
sg18
I0
ssS'J1748-2446ae'
p659
(dp660
g4
F0
sg5
F0
sg6
g7
(g9
S'\x00\x00\x00\x00\x00\x00\x00\x00'
tRp661
sg11
I0
sg12
F273.32934299999999
sg13
F4.6731378633137473
sg14
F1.5707963267948966
sg15
F3.1415926535897931
sg16
g7
(g9
S'\xa5\xa1\xe9\x82\x1b\xf0\xd9\xbf'
tRp662
sg18
I0
ssS'J1420-5625'
p663
(dp664
g4
F2.1876347573747973e-07
sg5
F1e-10
sg6
g7
(g9
S'\x8d\xd1\t\xdfk\x85\x83>'
tRp665
sg11
I0
sg12
F29.310788309229999
sg13
F3.7629550672722205
sg14
F1.5707963267948966
sg15
F3.1415926535897931
sg16
g7
(g9
S'\xfaoQ}\xf9\x08\xef\xbf'
tRp666
sg18
I0
ssS'J1751-2857'
p667
(dp668
g4
F1.4584231715831983e-08
sg5
F3.9999999999999998e-11
sg6
g7
(g9
S'\x8d\xd1\t\xdfk\x85\x83>'
tRp669
sg11
I0
sg12
F255.43611500047999
sg13
F4.688297916958299
sg14
F1.5707963267948966
sg15
F3.1415926535897931
sg16
g7
(g9
S'\x96A\xd4\xdba3\xde\xbf'
tRp670
sg18
I0
ssS'J1454-5846'
p671
(dp672
g4
F2.1876347573747973e-07
sg5
F5.0000000000000002e-11
sg6
g7
(g9
S'\x8d\xd1\t\xdfk\x85\x83>'
tRp673
sg11
I0
sg12
F22.10004678013
sg13
F3.9122863701839194
sg14
F1.5707963267948966
sg15
F3.1415926535897931
sg16
g7
(g9
S'\xbc\x07\xe5\x1e\xb1\xf5\xef\xbf'
tRp674
sg18
I0
ssS'J1910-5959E'
p675
(dp676
g4
F4.3752695147495945e-08
sg5
F1e-10
sg6
g7
(g9
S'\xd8\x07\xe7\x8bB8b>'
tRp677
sg11
I0
sg12
F218.73385758998
sg13
F5.035363305414279
sg14
F1.5707963267948966
sg15
F3.1415926535897931
sg16
g7
(g9
S'\xb5v\xc4k~3\xf0\xbf'
tRp678
sg18
I0
ssS'J1910-5959D'
p679
(dp680
g4
F3.6460579289579957e-08
sg5
F5.0000000000000002e-11
sg6
g7
(g9
S'\x11\xc2\xb7~:\x07Z>'
tRp681
sg11
I0
sg12
F110.67719198432
sg13
F5.0353821992864667
sg14
F1.5707963267948966
sg15
F3.1415926535897931
sg16
g7
(g9
S'(\xe9`-m3\xf0\xbf'
tRp682
sg18
I0
ssS'J1748-2446ah'
p683
(dp684
g4
F0
sg5
F0
sg6
g7
(g9
S'\x00\x00\x00\x00\x00\x00\x00\x00'
tRp685
sg11
I0
sg12
F201.403784
sg13
F4.6731378633137473
sg14
F1.5707963267948966
sg15
F3.1415926535897931
sg16
g7
(g9
S'\xa5\xa1\xe9\x82\x1b\xf0\xd9\xbf'
tRp686
sg18
I0
ssS'J1910-5959B'
p687
(dp688
g4
F3.6460579289579957e-08
sg5
F3e-11
sg6
g7
(g9
S'\xe1\xe8B\xcb\xdf;_>'
tRp689
sg11
I0
sg12
F119.64873284502001
sg13
F5.0353558966245675
sg14
F1.5707963267948966
sg15
F3.1415926535897931
sg16
g7
(g9
S'\xd9^L\xa7\x843\xf0\xbf'
tRp690
sg18
I0
ssS'J1910-5959A'
p691
(dp692
g4
F2.1876347573747975e-09
sg5
F8.9999999999999996e-12
sg6
g7
(g9
S'\xe6S\x02\t\xb3\xfc\x18>'
tRp693
sg11
I0
sg12
F306.16744583514799
sg13
F5.0390530008229533
sg14
F1.5707963267948966
sg15
F3.1415926535897931
sg16
g7
(g9
S'\xa0Y\xc5H14\xf0\xbf'
tRp694
sg18
I0
ssS'J1748-2446ad'
p695
(dp696
g4
F0
sg5
F4.0000000000000003e-05
sg6
g7
(g9
S'\x00\x00\x00\x00\x00\x00\x00\x00'
tRp697
sg11
I0
sg12
F716.35555999999997
sg13
F4.6731378633137473
sg14
F1.5707963267948966
sg15
F3.1415926535897931
sg16
g7
(g9
S'\xa5\xa1\xe9\x82\x1b\xf0\xd9\xbf'
tRp698
sg18
I0
ssS'J1518+4904'
p699
(dp700
g4
F1.1667385372665585e-09
sg5
F2.9999999999999998e-13
sg6
g7
(g9
S'\x91j\xf1^%\xa7\n>'
tRp701
sg11
I0
sg12
F24.4289793809236
sg13
F4.0177224232084763
sg14
F1.5707963267948966
sg15
F3.1415926535897931
sg16
g7
(g9
S'|\xee\x08\x8c\xc8h\xeb?'
tRp702
sg18
I0
ssS'J1748-2446af'
p703
(dp704
g4
F0
sg5
F0
sg6
g7
(g9
S'\x00\x00\x00\x00\x00\x00\x00\x00'
tRp705
sg11
I0
sg12
F302.632296
sg13
F4.6731378633137473
sg14
F1.5707963267948966
sg15
F3.1415926535897931
sg16
g7
(g9
S'\xa5\xa1\xe9\x82\x1b\xf0\xd9\xbf'
tRp706
sg18
I0
ssS'J1748-2446ag'
p707
(dp708
g4
F0
sg5
F0
sg6
g7
(g9
S'\x00\x00\x00\x00\x00\x00\x00\x00'
tRp709
sg11
I0
sg12
F224.81862799999999
sg13
F4.6731378633137473
sg14
F1.5707963267948966
sg15
F3.1415926535897931
sg16
g7
(g9
S'\xa5\xa1\xe9\x82\x1b\xf0\xd9\xbf'
tRp710
sg18
I0
ssS'J1959+2048'
p711
(dp712
g4
F3.6460579289579958e-09
sg5
F1.2000000000000001e-11
sg6
g7
(g9
S'\xe6S\x02\t\xb3\xfc(>'
tRp713
sg11
I0
sg12
F622.12203051192705
sg13
F5.2486294504351809
sg14
F1.5707963267948966
sg15
F3.1415926535897931
sg16
g7
(g9
S'\x81\xca\xdbS\x0f=\xd7?'
tRp714
sg18
I0
ssS'J1748-2446aa'
p715
(dp716
g4
F0
sg5
F0
sg6
g7
(g9
S'\x00\x00\x00\x00\x00\x00\x00\x00'
tRp717
sg11
I0
sg12
F172.77005700000001
sg13
F4.6731378633137473
sg14
F1.5707963267948966
sg15
F3.1415926535897931
sg16
g7
(g9
S'\xa5\xa1\xe9\x82\x1b\xf0\xd9\xbf'
tRp718
sg18
I0
ssS'J1748-2446ab'
p719
(dp720
g4
F0
sg5
F0
sg6
g7
(g9
S'\x00\x00\x00\x00\x00\x00\x00\x00'
tRp721
sg11
I0
sg12
F195.32356300000001
sg13
F4.6731378633137473
sg14
F1.5707963267948966
sg15
F3.1415926535897931
sg16
g7
(g9
S'\xa5\xa1\xe9\x82\x1b\xf0\xd9\xbf'
tRp722
sg18
I0
ssS'J1748-2446ac'
p723
(dp724
g4
F0
sg5
F0
sg6
g7
(g9
S'\x00\x00\x00\x00\x00\x00\x00\x00'
tRp725
sg11
I0
sg12
F196.58299400000001
sg13
F4.6731378633137473
sg14
F1.5707963267948966
sg15
F3.1415926535897931
sg16
g7
(g9
S'\xa5\xa1\xe9\x82\x1b\xf0\xd9\xbf'
tRp726
sg18
I0
ss.