(dp1
S'J1801-1417'
p2
(dp3
S'RAS error'
p4
F3.6460579289579957e-08
sS'FR0 error'
p5
F1.2999999999999999e-10
sS'DEC error'
p6
cnumpy.core.multiarray
scalar
p7
(cnumpy
dtype
p8
(S'f8'
I0
I1
tRp9
(I3
S'<'
NNNI-1
I-1
I0
tbS'K\xd92\x8f\x84D\x90>'
tRp10
sS'POL'
p11
I0
sS'FR0'
p12
F275.85471333794999
sS'RAS'
p13
F4.7333908957083644
sS'POL error'
p14
F1.5707963267948966
sS'INC error'
p15
F3.1415926535897931
sS'DEC'
p16
g7
(g9
S'\xc2\xef\xfc\x056\x9f\xce\xbf'
tRp17
sS'INC'
p18
I0
ssS'J1757-5322'
p19
(dp20
g4
F2.1876347573747972e-08
sg5
F6e-11
sg6
g7
(g9
S'\x11\xc2\xb7~:\x07Z>'
tRp21
sg11
I0
sg12
F112.74006440127
sg13
F4.7132708615311119
sg14
F1.5707963267948966
sg15
F3.1415926535897931
sg16
g7
(g9
S'2Q\xf2\xe4Sd\xed\xbf'
tRp22
sg18
I0
ssS'J1618-39'
p23
(dp24
g4
F0.0036460579289579955
sg5
F4.0000000000000003e-05
sg6
g7
(g9
S'\x85s\xbf\x1f\x0fk\t?'
tRp25
sg11
I0
sg12
F83.421530000000004
sg13
F4.2812012201824787
sg14
F1.5707963267948966
sg15
F3.1415926535897931
sg16
g7
(g9
S'\xa2\xe0{i\x90\x0b\x87\xbf'
tRp26
sg18
I0
ssS'J1623-2631'
p27
(dp28
g4
F1.4584231715831983e-08
sg5
F1.4e-11
sg6
g7
(g9
S'@\x9b,2\x95\xd2D>'
tRp29
sg11
I0
sg12
F90.287332005425995
sg13
F4.3036771109378327
sg14
F1.5707963267948966
sg15
F3.1415926535897931
sg16
g7
(g9
S'\xd7\x1ck!\xcfr\xdc\xbf'
tRp30
sg18
I0
ssS'J2051-0827'
p31
(dp32
g4
F7.2921158579159917e-09
sg5
F9.9999999999999994e-12
sg6
g7
(g9
S'\x11\xc2\xb7~:\x07Z>'
tRp33
sg11
I0
sg12
F221.79628734425
sg13
F5.474010128997886
sg14
F1.5707963267948966
sg15
F3.1415926535897931
sg16
g7
(g9
S'\x7f\xc3P\x92\xe9\xd7\xc0\xbf'
tRp34
sg18
I0
ssS'J1807-2459A'
p35
(dp36
g4
F1.1667385372665585e-09
sg5
F3.9999999999999999e-12
sg6
g7
(g9
S'$>\xc48\x19\xeb`>'
tRp37
sg11
I0
sg12
F326.85626268597798
sg13
F4.7574023167600679
sg14
F1.5707963267948966
sg15
F3.1415926535897931
sg16
g7
(g9
S'\xf2@\xa0\xe1\x85\xb1\xd9\xbf'
tRp38
sg18
I0
ssS'J1300+1240'
p39
(dp40
g4
F7.2921158579159917e-09
sg5
F8.0000000000000002e-13
sg6
g7
(g9
S'\xe6S\x02\t\xb3\xfc\x18>'
tRp41
sg11
I0
sg12
F160.8096586618355
sg13
F3.4129710386125738
sg14
F1.5707963267948966
sg15
F3.1415926535897931
sg16
g7
(g9
S'\x1f\x85\x02\x82(U\xcc?'
tRp42
sg18
I0
ssS'J1024-0719'
p43
(dp44
g4
F2.1876347573747975e-09
sg5
F1.2999999999999999e-10
sg6
g7
(g9
S'@\x9b,2\x95\xd24>'
tRp45
sg11
I0
sg12
F193.71568356844
sg13
F2.7329893845305904
sg14
F1.5707963267948966
sg15
F3.1415926535897931
sg16
g7
(g9
S'\xc6\xf3\x83\xc3n\xd6\xbd\xbf'
tRp46
sg18
I0
ssS'J0218+4232'
p47
(dp48
g4
F1.0208962201082388e-07
sg5
F3e-10
sg6
g7
(g9
S'\xff\xa2U\xe2\xad\x91\x81>'
tRp49
sg11
I0
sg12
F430.46106634569998
sg13
F0.60425031531358031
sg14
F1.5707963267948966
sg15
F3.1415926535897931
sg16
g7
(g9
S'z\xf1\xa2\x19\xff\xc1\xe7?'
tRp50
sg18
I0
ssS'J1744-1134'
p51
(dp52
g4
F2.9168463431663961e-10
sg5
F4.9999999999999999e-13
sg6
g7
(g9
S'\x9a\xe2V[w\xa8\x10>'
tRp53
sg11
I0
sg12
F245.42611974830271
sg13
F4.6574308797597936
sg14
F1.5707963267948966
sg15
F3.1415926535897931
sg16
g7
(g9
S'\xee\xcb\xc1\x1e=F\xc7\xbf'
tRp54
sg18
I0
ssS'J1741+1351'
p55
(dp56
g4
F0.0043752695147495947
sg5
F5.0000000000000002e-05
sg6
g7
(g9
S'\xcf\xa3\xd5\xecA\xaep?'
tRp57
sg11
I0
sg12
F266.86917
sg13
F4.6448590380167492
sg14
F1.5707963267948966
sg15
F3.1415926535897931
sg16
g7
(g9
S'\xd7\xf4\xfa\xb9\xef\xf7\xce?'
tRp58
sg18
I0
ssS'J1641+3627D'
p59
(dp60
g4
F0
sg5
F0.11
sg6
g7
(g9
S'\x00\x00\x00\x00\x00\x00\x00\x00'
tRp61
sg11
I0
sg12
F320.72000000000003
sg13
F4.3826345517660901
sg14
F1.5707963267948966
sg15
F3.1415926535897931
sg16
g7
(g9
S'\xf5\xbc^\xa5\xfe\\\xe4?'
tRp62
sg18
I0
ssS'J1732-5049'
p63
(dp64
g4
F2.9168463431663967e-09
sg5
F3.0000000000000001e-12
sg6
g7
(g9
S'\x94w\x97\x1d\xa4\xe76>'
tRp65
sg11
I0
sg12
F188.23351226543701
sg13
F4.6062667442894627
sg14
F1.5707963267948966
sg15
F3.1415926535897931
sg16
g7
(g9
S'\x05\xc3\xf2\xf5\x18x\xeb\xbf'
tRp66
sg18
I0
ssS'J1017-7156'
p67
(dp68
g4
F3.6460579289579958e-09
sg5
F8.9999999999999999e-11
sg6
g7
(g9
S'\xec\x0f5\x07\\\xfd\x03>'
tRp69
sg11
I0
sg12
F427.62190510626999
sg13
F2.7032842111628219
sg14
F1.5707963267948966
sg15
F3.1415926535897931
sg16
g7
(g9
S'\x9b\x96\x8c\xa5%\x90\xf3\xbf'
tRp70
sg18
I0
ssS'J1302-6350'
p71
(dp72
g4
F7.2921158579159912e-07
sg5
F7.0000000000000004e-11
sg6
g7
(g9
S'K\xd92\x8f\x84D\xa0>'
tRp73
sg11
I0
sg12
F20.936924536669999
sg13
F3.4249354537404799
sg14
F1.5707963267948966
sg15
F3.1415926535897931
sg16
g7
(g9
S'\xbb\x84\x0eb\n\\\xf1\xbf'
tRp74
sg18
I0
ssS'J1641+3627E'
p75
(dp76
g4
F0.00065629042721243916
sg5
F0.17000000000000001
sg6
g7
(g9
S'eP\xaf\xe7\xd2\xc5??'
tRp77
sg11
I0
sg12
F402.08999999999997
sg13
F4.3826345517660901
sg14
F1.5707963267948966
sg15
F3.1415926535897931
sg16
g7
(g9
S'\xf5\xbc^\xa5\xfe\\\xe4?'
tRp78
sg18
I0
ssS'J2010-1323'
p79
(dp80
g4
F1.4584231715831983e-08
sg5
F3.9999999999999998e-11
sg6
g7
(g9
S'\xe1\xe8B\xcb\xdf;_>'
tRp81
sg11
I0
sg12
F191.45091209930999
sg13
F5.2974246232805005
sg14
F1.5707963267948966
sg15
F3.1415926535897931
sg16
g7
(g9
S'E>\xbb\xd3\xb0&\xcc\xbf'
tRp82
sg18
I0
ssS'J1701-3006C'
p83
(dp84
g4
F2.552240550270597e-08
sg5
F1.2e-10
sg6
g7
(g9
S'\xc6\x8b\xda\xd1cT{>'
tRp85
sg11
I0
sg12
F131.35687282698001
sg13
F4.4680883723519225
sg14
F1.5707963267948966
sg15
F3.1415926535897931
sg16
g7
(g9
S'\xb6{\xe7\xe8\xa9\xb0\xe0\xbf'
tRp86
sg18
I0
ssS'J2129-5721'
p87
(dp88
g4
F3.6460579289579958e-09
sg5
F3.0000000000000001e-12
sg6
g7
(g9
S'\x9a\xe2V[w\xa8 >'
tRp89
sg11
I0
sg12
F268.35922742360799
sg13
F5.6413824787512636
sg14
F1.5707963267948966
sg15
F3.1415926535897931
sg16
g7
(g9
S'\xae36\xb0\x1a\xa3\xef\xbf'
tRp90
sg18
I0
ssS'J0407+1607'
p91
(dp92
g4
F2.1876347573747973e-07
sg5
F3.9999999999999998e-11
sg6
g7
(g9
S'K\xd92\x8f\x84D\xb0>'
tRp93
sg11
I0
sg12
F38.907872826320002
sg13
F1.0846977856743303
sg14
F1.5707963267948966
sg15
F3.1415926535897931
sg16
g7
(g9
S'\x13\xc0\xc9\xa2\xf0\x01\xd2?'
tRp94
sg18
I0
ssS'J2215+5135'
p95
(dp96
g4
F7.2921158579159912e-07
sg5
F0
sg6
g7
(g9
S'K\xd92\x8f\x84D\xa0>'
tRp97
sg11
I0
sg12
F383.14176200000003
sg13
F5.8433678656530752
sg14
F1.5707963267948966
sg15
F3.1415926535897931
sg16
g7
(g9
S'\x05\xb5?u\xb2\xd0\xec?'
tRp98
sg18
I0
ssS'J1910-5959B'
p99
(dp100
g4
F3.6460579289579957e-08
sg5
F3e-11
sg6
g7
(g9
S'\xe1\xe8B\xcb\xdf;_>'
tRp101
sg11
I0
sg12
F119.64873284502001
sg13
F5.0353558966245675
sg14
F1.5707963267948966
sg15
F3.1415926535897931
sg16
g7
(g9
S'\xd9^L\xa7\x843\xf0\xbf'
tRp102
sg18
I0
ssS'J1455-3330'
p103
(dp104
g4
F7.2921158579159915e-08
sg5
F5.0000000000000002e-11
sg6
g7
(g9
S'\x8d\xd1\t\xdfk\x85\x83>'
tRp105
sg11
I0
sg12
F125.20024533089
sg13
F3.919363689477124
sg14
F1.5707963267948966
sg15
F3.1415926535897931
sg16
g7
(g9
S'\xe6\x98\xf4a\xec$\xe2\xbf'
tRp106
sg18
I0
ssS'J0437-4715'
p107
(dp108
g4
F2.1876347573747972e-10
sg5
F3.0000000000000001e-12
sg6
g7
(g9
S'\x92\x82\xd2\xf7h\xa7\xe8='
tRp109
sg11
I0
sg12
F173.68794618476801
sg13
F1.2131078805776401
sg14
F1.5707963267948966
sg15
F3.1415926535897931
sg16
g7
(g9
S'\xb0\x00\xcc\\\xd5\x1b\xea\xbf'
tRp110
sg18
I0
ssS'J0514-4002A'
p111
(dp112
g4
F1.4584231715831983e-08
sg5
F1.0999999999999999e-10
sg6
g7
(g9
S'@\x9b,2\x95\xd2D>'
tRp113
sg11
I0
sg12
F200.37770740529001
sg13
F1.3743226670693953
sg14
F1.5707963267948966
sg15
F3.1415926535897931
sg16
g7
(g9
S'\x13\xf0\xcc\x11cP\xe6\xbf'
tRp114
sg18
I0
ssS'J0610-2100'
p115
(dp116
g4
F7.2921158579159917e-09
sg5
F5.0000000000000002e-11
sg6
g7
(g9
S'\xc3P\x0c\xd1\xfe\xb2A>'
tRp117
sg11
I0
sg12
F258.97847929928002
sg13
F1.6198408750537201
sg14
F1.5707963267948966
sg15
F3.1415926535897931
sg16
g7
(g9
S'\x15\r\xad\x04\xd3r\xd7\xbf'
tRp118
sg18
I0
ssS'J0024-7204E'
p119
(dp120
g4
F7.2921158579159917e-09
sg5
F9.9999999999999994e-12
sg6
g7
(g9
S'\x9a\xe2V[w\xa8 >'
tRp121
sg11
I0
sg12
F282.77910703517
sg13
F0.10581615573038983
sg14
F1.5707963267948966
sg15
F3.1415926535897931
sg16
g7
(g9
S'\x00\xad\xa0\xff\xd3\x14\xf4\xbf'
tRp122
sg18
I0
ssS'J1909-3744'
p123
(dp124
g4
F5.8336926863327926e-11
sg5
F1e-13
sg6
g7
(g9
S'\xec\x0f5\x07\\\xfd\xe3='
tRp125
sg11
I0
sg12
F339.31568740949069
sg13
F5.030643805153395
sg14
F1.5707963267948966
sg15
F3.1415926535897931
sg16
g7
(g9
S'\x08][\xd8\xbd@\xe4\xbf'
tRp126
sg18
I0
ssS'J0024-7204D'
p127
(dp128
g4
F5.1044811005411929e-09
sg5
F6.0000000000000003e-12
sg6
g7
(g9
S'\xe6S\x02\t\xb3\xfc\x18>'
tRp129
sg11
I0
sg12
F186.651669856838
sg13
F0.10601856590710435
sg14
F1.5707963267948966
sg15
F3.1415926535897931
sg16
g7
(g9
S'K\x8b;\x85\x8c\x15\xf4\xbf'
tRp130
sg18
I0
ssS'J2007+2722'
p131
(dp132
g4
F2.9168463431663967e-08
sg5
F1.5e-11
sg6
g7
(g9
S'\xe1\xe8B\xcb\xdf;_>'
tRp133
sg11
I0
sg12
F40.820677605082999
sg13
F5.2821045587376787
sg14
F1.5707963267948966
sg15
F3.1415926535897931
sg16
g7
(g9
S'Ag\xb0\x1fo\x95\xde?'
tRp134
sg18
I0
ssS'J1439-5501'
p135
(dp136
g4
F2.9168463431663967e-08
sg5
F1.4e-11
sg6
g7
(g9
S'\xe1\xe8B\xcb\xdf;_>'
tRp137
sg11
I0
sg12
F34.922434246953003
sg13
F3.8487599361491465
sg14
F1.5707963267948966
sg15
F3.1415926535897931
sg16
g7
(g9
S'u\xfcF4o\xb4\xee\xbf'
tRp138
sg18
I0
ssS'J1748-2446T'
p139
(dp140
g4
F0
sg5
F0
sg6
g7
(g9
S'\x00\x00\x00\x00\x00\x00\x00\x00'
tRp141
sg11
I0
sg12
F141.14505299999999
sg13
F4.6731378633137473
sg14
F1.5707963267948966
sg15
F3.1415926535897931
sg16
g7
(g9
S'\xa5\xa1\xe9\x82\x1b\xf0\xd9\xbf'
tRp142
sg18
I0
ssS'J0024-7204R'
p143
(dp144
g4
F0
sg5
F9.0000000000000006e-05
sg6
g7
(g9
S'\x00\x00\x00\x00\x00\x00\x00\x00'
tRp145
sg11
I0
sg12
F287.31810000000002
sg13
F0.10541993132313411
sg14
F1.5707963267948966
sg15
F3.1415926535897931
sg16
g7
(g9
S'\xa8\xd0|\xe3_\x15\xf4\xbf'
tRp146
sg18
I0
ssS'J1721-2457'
p147
(dp148
g4
F2.1876347573747972e-08
sg5
F1.5e-11
sg6
g7
(g9
S'\x8d\xd1\t\xdfk\x85\x93>'
tRp149
sg11
I0
sg12
F285.98934350733799
sg13
F4.5550563614182265
sg14
F1.5707963267948966
sg15
F3.1415926535897931
sg16
g7
(g9
S'\x13\xf8\xedm\xc0\xbe\xd9\xbf'
tRp150
sg18
I0
ssS'J1748-2446U'
p151
(dp152
g4
F0
sg5
F0
sg6
g7
(g9
S'\x00\x00\x00\x00\x00\x00\x00\x00'
tRp153
sg11
I0
sg12
F304.03084100000001
sg13
F4.6731378633137473
sg14
F1.5707963267948966
sg15
F3.1415926535897931
sg16
g7
(g9
S'\xa5\xa1\xe9\x82\x1b\xf0\xd9\xbf'
tRp154
sg18
I0
ssS'J1641+3627B'
p155
(dp156
g4
F0.00065629042721243916
sg5
F0.00050000000000000001
sg6
g7
(g9
S'eP\xaf\xe7\xd2\xc5??'
tRp157
sg11
I0
sg12
F283.4409
sg13
F4.3826345517660901
sg14
F1.5707963267948966
sg15
F3.1415926535897931
sg16
g7
(g9
S'\xf5\xbc^\xa5\xfe\\\xe4?'
tRp158
sg18
I0
ssS'J1641+3627C'
p159
(dp160
g4
F0
sg5
F0.080000000000000002
sg6
g7
(g9
S'\x00\x00\x00\x00\x00\x00\x00\x00'
tRp161
sg11
I0
sg12
F268.67000000000002
sg13
F4.3826345517660901
sg14
F1.5707963267948966
sg15
F3.1415926535897931
sg16
g7
(g9
S'\xf5\xbc^\xa5\xfe\\\xe4?'
tRp162
sg18
I0
ssS'J1843-1113'
p163
(dp164
g4
F1.4584231715831983e-08
sg5
F1.4000000000000001e-10
sg6
g7
(g9
S'@\x9b,2\x95\xd2t>'
tRp165
sg11
I0
sg12
F541.80975407333995
sg13
F4.9164365561393772
sg14
F1.5707963267948966
sg15
F3.1415926535897931
sg16
g7
(g9
S'\xdeQ\xf2Y(\x12\xc8\xbf'
tRp166
sg18
I0
ssS'J1748-2446P'
p167
(dp168
g4
F0
sg5
F0
sg6
g7
(g9
S'\x00\x00\x00\x00\x00\x00\x00\x00'
tRp169
sg11
I0
sg12
F578.49614099999997
sg13
F4.6731378633137473
sg14
F1.5707963267948966
sg15
F3.1415926535897931
sg16
g7
(g9
S'\xa5\xa1\xe9\x82\x1b\xf0\xd9\xbf'
tRp170
sg18
I0
ssS'J1748-2446J'
p171
(dp172
g4
F0
sg5
F0
sg6
g7
(g9
S'\x00\x00\x00\x00\x00\x00\x00\x00'
tRp173
sg11
I0
sg12
F12.447421
sg13
F4.6731378633137473
sg14
F1.5707963267948966
sg15
F3.1415926535897931
sg16
g7
(g9
S'\xa5\xa1\xe9\x82\x1b\xf0\xd9\xbf'
tRp174
sg18
I0
ssS'J1038+0032'
p175
(dp176
g4
F6.5629042721243912e-07
sg5
F1e-10
sg6
g7
(g9
S'\xefE\xcc\xd6\xc6f\xb8>'
tRp177
sg11
I0
sg12
F34.660173349650002
sg13
F2.7933859359742539
sg14
F1.5707963267948966
sg15
F3.1415926535897931
sg16
g7
(g9
S'\x0b!\xdf\x1e\x1e\x7f\x83?'
tRp178
sg18
I0
ssS'J2129+1210H'
p179
(dp180
g4
F3.6460579289579956e-07
sg5
F6.9999999999999998e-09
sg6
g7
(g9
S'K\xd92\x8f\x84D\xa0>'
tRp181
sg11
I0
sg12
F148.293272565
sg13
F5.6439652492029966
sg14
F1.5707963267948966
sg15
F3.1415926535897931
sg16
g7
(g9
S'\xeb\xe0\xc2=$.\xcb?'
tRp182
sg18
I0
ssS'J2129+1210F'
p183
(dp184
g4
F3.6460579289579956e-07
sg5
F1e-08
sg6
g7
(g9
S'K\xd92\x8f\x84D\xa0>'
tRp185
sg11
I0
sg12
F248.32118076
sg13
F5.6438918905174669
sg14
F1.5707963267948966
sg15
F3.1415926535897931
sg16
g7
(g9
S'\xf2\xf1\x10\xc5\xb1.\xcb?'
tRp186
sg18
I0
ssS'J2140-2310B'
p187
(dp188
g4
F0.0011667385372665586
sg5
F1.4e-05
sg6
g7
(g9
S'w\x89\xc9\xc2TrU?'
tRp189
sg11
I0
sg12
F77.003746000000007
sg13
F5.6894546346632149
sg14
F1.5707963267948966
sg15
F3.1415926535897931
sg16
g7
(g9
S'\x1d^\x8f\x13\x91}\xd9\xbf'
tRp190
sg18
I0
ssS'J2129+1210D'
p191
(dp192
g4
F5.1044811005411942e-07
sg5
F1.4e-08
sg6
g7
(g9
S'\xadM\xf5\x86\xdf%\xa5>'
tRp193
sg11
I0
sg12
F208.21168800999999
sg13
F5.6439718121072699
sg14
F1.5707963267948966
sg15
F3.1415926535897931
sg16
g7
(g9
S'M6C\xd90.\xcb?'
tRp194
sg18
I0
ssS'J2129+1210E'
p195
(dp196
g4
F2.9168463431663966e-07
sg5
F6.9999999999999998e-09
sg6
g7
(g9
S'\x11\xc2\xb7~:\x07\x9a>'
tRp197
sg11
I0
sg12
F214.98740790599999
sg13
F5.6439654679664732
sg14
F1.5707963267948966
sg15
F3.1415926535897931
sg16
g7
(g9
S'}\xbe\xabe\x9a/\xcb?'
tRp198
sg18
I0
ssS'J2129+1210C'
p199
(dp200
g4
F7.2921158579159917e-09
sg5
F1.1000000000000001e-11
sg6
g7
(g9
S'@\x9b,2\x95\xd2T>'
tRp201
sg11
I0
sg12
F32.755422697307999
sg13
F5.6441854856861378
sg14
F1.5707963267948966
sg15
F3.1415926535897931
sg16
g7
(g9
S'\xa0\x04ZYM4\xcb?'
tRp202
sg18
I0
ssS'J1944+0907'
p203
(dp204
g4
F2.1876347573747975e-09
sg5
F1.2000000000000001e-11
sg6
g7
(g9
S'\xe6S\x02\t\xb3\xfc8>'
tRp205
sg11
I0
sg12
F192.85652101690999
sg13
F5.1809987919152514
sg14
F1.5707963267948966
sg15
F3.1415926535897931
sg16
g7
(g9
S'\\\x07N\x98\x99a\xc4?'
tRp206
sg18
I0
ssS'J2229+2643'
p207
(dp208
g4
F1.4584231715831983e-08
sg5
F6e-11
sg6
g7
(g9
S'@\x9b,2\x95\xd2T>'
tRp209
sg11
I0
sg12
F335.81621348252003
sg13
F5.9059492706411261
sg14
F1.5707963267948966
sg15
F3.1415926535897931
sg16
g7
(g9
S'\xad\xf1\t\xfaX\xdc\xdd?'
tRp210
sg18
I0
ssS'J0024-7204U'
p211
(dp212
g4
F1.4584231715831983e-08
sg5
F1.9999999999999999e-11
sg6
g7
(g9
S'\xed\xbe\xc1F\x86\xbd2>'
tRp213
sg11
I0
sg12
F230.26477221191999
sg13
F0.10572365524073217
sg14
F1.5707963267948966
sg15
F3.1415926535897931
sg16
g7
(g9
S'3Jo\tm\x16\xf4\xbf'
tRp214
sg18
I0
ssS'J2129+1210G'
p215
(dp216
g4
F2.1876347573747971e-06
sg5
F6e-09
sg6
g7
(g9
S'\xefE\xcc\xd6\xc6f\xc8>'
tRp217
sg11
I0
sg12
F26.553254562999999
sg13
F5.6439481856518894
sg14
F1.5707963267948966
sg15
F3.1415926535897931
sg16
g7
(g9
S'03\xb4\x9d\xcd-\xcb?'
tRp218
sg18
I0
ssS'J1748-2446N'
p219
(dp220
g4
F0
sg5
F0
sg6
g7
(g9
S'\x00\x00\x00\x00\x00\x00\x00\x00'
tRp221
sg11
I0
sg12
F115.38150899999999
sg13
F4.6731378633137473
sg14
F1.5707963267948966
sg15
F3.1415926535897931
sg16
g7
(g9
S'\xa5\xa1\xe9\x82\x1b\xf0\xd9\xbf'
tRp222
sg18
I0
ssS'J1231-1411'
p223
(dp224
g4
F5.1044811005411939e-08
sg5
F2.0000000000000001e-10
sg6
g7
(g9
S'\x11\xc2\xb7~:\x07z>'
tRp225
sg11
I0
sg12
F271.45301961029998
sg13
F3.286652377228183
sg14
F1.5707963267948966
sg15
F3.1415926535897931
sg16
g7
(g9
S'\xd0\xe6\xe5\x98\xf3\xd6\xce\xbf'
tRp226
sg18
I0
ssS'J1731-1847'
p227
(dp228
g4
F1.4584231715831983e-08
sg5
F1.0999999999999999e-10
sg6
g7
(g9
S'\x11\xc2\xb7~:\x07j>'
tRp229
sg11
I0
sg12
F426.51933740161002
sg13
F4.599692197425159
sg14
F1.5707963267948966
sg15
F3.1415926535897931
sg16
g7
(g9
S'\x82\xf8p@\x968\xd3\xbf'
tRp230
sg18
I0
ssS'J1804-0735'
p231
(dp232
g4
F1.1667385372665587e-07
sg5
F3.9999999999999998e-11
sg6
g7
(g9
S'kU\x1e7\xf8\xe4\xa1>'
tRp233
sg11
I0
sg12
F43.288440522789998
sg13
F4.7464305843643313
sg14
F1.5707963267948966
sg15
F3.1415926535897931
sg16
g7
(g9
S'y\xf0U\x11\xa9\xa3\xbc\xbf'
tRp234
sg18
I0
ssS'J1853+1303'
p235
(dp236
g4
F5.8336926863327923e-10
sg5
F1.5000000000000001e-12
sg6
g7
(g9
S'\x9a\xe2V[w\xa8\x10>'
tRp237
sg11
I0
sg12
F244.39137786537401
sg13
F4.9613601407881713
sg14
F1.5707963267948966
sg15
F3.1415926535897931
sg16
g7
(g9
S'5W\xfe\xd9k.\xcd?'
tRp238
sg18
I0
ssS'J1045-4509'
p239
(dp240
g4
F3.6460579289579958e-09
sg5
F2e-12
sg6
g7
(g9
S'@\x9b,2\x95\xd2$>'
tRp241
sg11
I0
sg12
F133.793149594456
sg13
F2.8257087142312085
sg14
F1.5707963267948966
sg15
F3.1415926535897931
sg16
g7
(g9
S'S=\x9b\x83b\n\xe9\xbf'
tRp242
sg18
I0
ssS'J1719-1438'
p243
(dp244
g4
F7.2921158579159917e-09
sg5
F3e-11
sg6
g7
(g9
S'\x11\xc2\xb7~:\x07z>'
tRp245
sg11
I0
sg12
F172.70704459859999
sg13
F4.5466395606551968
sg14
F1.5707963267948966
sg15
F3.1415926535897931
sg16
g7
(g9
S'\xe2l\xb4\xf9^\xdc\xcd\xbf'
tRp246
sg18
I0
ssS'J2302+4442'
p247
(dp248
g4
F5.1044811005411939e-08
sg5
F3e-10
sg6
g7
(g9
S'\x11\xc2\xb7~:\x07Z>'
tRp249
sg11
I0
sg12
F192.5919637346
sg13
F6.0500482762455254
sg14
F1.5707963267948966
sg15
F3.1415926535897931
sg16
g7
(g9
S'uY\x1eC\xf7\xf7\xe8?'
tRp250
sg18
I0
ssS'J1701-3006B'
p251
(dp252
g4
F7.2921158579159915e-08
sg5
F3e-10
sg6
g7
(g9
S']\xf8\x94+\x11\xba\x98>'
tRp253
sg11
I0
sg12
F278.25296218310001
sg13
F4.4680739179198694
sg14
F1.5707963267948966
sg15
F3.1415926535897931
sg16
g7
(g9
S'\xab\xc1\xc9Z\x13\xb1\xe0\xbf'
tRp254
sg18
I0
ssS'J0621+1002'
p255
(dp256
g4
F2.1876347573747975e-09
sg5
F1.2999999999999999e-12
sg6
g7
(g9
S'@\x9b,2\x95\xd2D>'
tRp257
sg11
I0
sg12
F34.657407178741202
sg13
F1.6685900506906319
sg14
F1.5707963267948966
sg15
F3.1415926535897931
sg16
g7
(g9
S'\x1a%5&Pp\xc6?'
tRp258
sg18
I0
ssS'J0024-7204P'
p259
(dp260
g4
F0
sg5
F8.0000000000000007e-05
sg6
g7
(g9
S'\x00\x00\x00\x00\x00\x00\x00\x00'
tRp261
sg11
I0
sg12
F274.49745999999999
sg13
F0.10541993132313411
sg14
F1.5707963267948966
sg15
F3.1415926535897931
sg16
g7
(g9
S'\xa8\xd0|\xe3_\x15\xf4\xbf'
tRp262
sg18
I0
ssS'J1312+1810'
p263
(dp264
g4
F0.0014584231715831981
sg5
F3.0000000000000001e-06
sg6
g7
(g9
S'\x85s\xbf\x1f\x0fk\xf9>'
tRp265
sg11
I0
sg12
F30.153936000000002
sg13
F3.4692241194035329
sg14
F1.5707963267948966
sg15
F3.1415926535897931
sg16
g7
(g9
S'^\x08\t\xe1*\xa5u?'
tRp266
sg18
I0
ssS'J1641+3627A'
p267
(dp268
g4
F2.1876347573747973e-07
sg5
F6e-09
sg6
g7
(g9
S'\x8d\xd1\t\xdfk\x85\x93>'
tRp269
sg11
I0
sg12
F96.362234564000005
sg13
F4.3826258012270598
sg14
F1.5707963267948966
sg15
F3.1415926535897931
sg16
g7
(g9
S'\xc1\x19~p#\\\xe4?'
tRp270
sg18
I0
ssS'J1804-2717'
p271
(dp272
g4
F5.9795350034911124e-08
sg5
F7.0000000000000004e-11
sg6
g7
(g9
S'kU\x1e7\xf8\xe4\xb1>'
tRp273
sg11
I0
sg12
F107.03165103913
sg13
F4.7443330655747289
sg14
F1.5707963267948966
sg15
F3.1415926535897931
sg16
g7
(g9
S'Pf\x84\x81G\xd5\xdd\xbf'
tRp274
sg18
I0
ssS'J1453+1902'
p275
(dp276
g4
F7.2921158579159917e-09
sg5
F1.2000000000000001e-11
sg6
g7
(g9
S'\xe1\xe8B\xcb\xdf;O>'
tRp277
sg11
I0
sg12
F172.64291004047499
sg13
F3.9104494497387305
sg14
F1.5707963267948966
sg15
F3.1415926535897931
sg16
g7
(g9
S't\tC\x98\xa4C\xd5?'
tRp278
sg18
I0
ssS'J1748-2446A'
p279
(dp280
g4
F1.4584231715831983e-07
sg5
F3e-10
sg6
g7
(g9
S'\xefE\xcc\xd6\xc6f\xc8>'
tRp281
sg11
I0
sg12
F86.481636859100007
sg13
F4.6729522789651625
sg14
F1.5707963267948966
sg15
F3.1415926535897931
sg16
g7
(g9
S'\x88\xcb\xa78\xc0\xf0\xd9\xbf'
tRp282
sg18
I0
ssS'J1911-1114'
p283
(dp284
g4
F1.4584231715831983e-08
sg5
F3.9999999999999998e-11
sg6
g7
(g9
S'\x11\xc2\xb7~:\x07z>'
tRp285
sg11
I0
sg12
F275.80534273796002
sg13
F5.0395296922702784
sg14
F1.5707963267948966
sg15
F3.1415926535897931
sg16
g7
(g9
S'\xcd\xfd\x95\xeb\x02\n\xc8\xbf'
tRp286
sg18
I0
ssS'J2043+1711'
p287
(dp288
g4
F3.6460579289579958e-09
sg5
F8.0000000000000005e-09
sg6
g7
(g9
S'@\x9b,2\x95\xd24>'
tRp289
sg11
I0
sg12
F420.18943681500002
sg13
F5.439982825951259
sg14
F1.5707963267948966
sg15
F3.1415926535897931
sg16
g7
(g9
S'R\xf5\xbc\x80\xf43\xd3?'
tRp290
sg18
I0
ssS'J1713+0747'
p291
(dp292
g4
F4.3752695147495941e-11
sg5
F2.9999999999999998e-13
sg6
g7
(g9
S'\x91j\xf1^%\xa7\xda='
tRp293
sg11
I0
sg12
F218.81184391573211
sg13
F4.5232652326241949
sg14
F1.5707963267948966
sg15
F3.1415926535897931
sg16
g7
(g9
S'\x93]\x94\xe2Ri\xc1?'
tRp294
sg18
I0
ssS'J1748-2446F'
p295
(dp296
g4
F0
sg5
F0
sg6
g7
(g9
S'\x00\x00\x00\x00\x00\x00\x00\x00'
tRp297
sg11
I0
sg12
F180.500854
sg13
F4.6731378633137473
sg14
F1.5707963267948966
sg15
F3.1415926535897931
sg16
g7
(g9
S'\xa5\xa1\xe9\x82\x1b\xf0\xd9\xbf'
tRp298
sg18
I0
ssS'J0034-0534'
p299
(dp300
g4
F9.4797506152907877e-08
sg5
F6e-11
sg6
g7
(g9
S'\x11\xc2\xb7~:\x07\x8a>'
tRp301
sg11
I0
sg12
F532.71342974901995
sg13
F0.15035089384306799
sg14
F1.5707963267948966
sg15
F3.1415926535897931
sg16
g7
(g9
S'B\xad\x07\xaeK\xc3\xb3\xbf'
tRp302
sg18
I0
ssS'J0024-7204T'
p303
(dp304
g4
F1.4584231715831983e-07
sg5
F7.0000000000000004e-11
sg6
g7
(g9
S'\xd8\x07\xe7\x8bB8b>'
tRp305
sg11
I0
sg12
F131.77869947412
sg13
F0.10562979841752493
sg14
F1.5707963267948966
sg15
F3.1415926535897931
sg16
g7
(g9
S'\xc8]\x05\x81\xa5\x15\xf4\xbf'
tRp306
sg18
I0
ssS'J1939+2134'
p307
(dp308
g4
F1.4584231715831981e-10
sg5
F1.2999999999999999e-12
sg6
g7
(g9
S'\xec\x0f5\x07\\\xfd\xe3='
tRp309
sg11
I0
sg12
F641.92826110680824
sg13
F5.1612545044255018
sg14
F1.5707963267948966
sg15
F3.1415926535897931
sg16
g7
(g9
S'\x80:+\xbe\xc9\x1b\xd8?'
tRp310
sg18
I0
ssS'J1748-2446D'
p311
(dp312
g4
F0
sg5
F0
sg6
g7
(g9
S'\x00\x00\x00\x00\x00\x00\x00\x00'
tRp313
sg11
I0
sg12
F212.13496900000001
sg13
F4.6731378633137473
sg14
F1.5707963267948966
sg15
F3.1415926535897931
sg16
g7
(g9
S'\xa5\xa1\xe9\x82\x1b\xf0\xd9\xbf'
tRp314
sg18
I0
ssS'J2145-0750'
p315
(dp316
g4
F2.1876347573747975e-09
sg5
F5.9999999999999997e-13
sg6
g7
(g9
S'\x8e\x0c\xd8\xdf\xd0&=>'
tRp317
sg11
I0
sg12
F62.295887856966502
sg13
F5.7134066188452994
sg14
F1.5707963267948966
sg15
F3.1415926535897931
sg16
g7
(g9
S'\x86Pt\x06\xb1\x87\xbb\xbf'
tRp318
sg18
I0
ssS'J1911+0101A'
p319
(dp320
g4
F2.9168463431663967e-09
sg5
F1.5999999999999999e-10
sg6
g7
(g9
S'@\x9b,2\x95\xd2D>'
tRp321
sg11
I0
sg12
F276.35575461663001
sg13
F5.0367438757693277
sg14
F1.5707963267948966
sg15
F3.1415926535897931
sg16
g7
(g9
S'\x9c2m@*\x84\x92?'
tRp322
sg18
I0
ssS'J1911+0101B'
p323
(dp324
g4
F2.9168463431663967e-08
sg5
F4.0000000000000001e-10
sg6
g7
(g9
S'\x11\xc2\xb7~:\x07z>'
tRp325
sg11
I0
sg12
F185.72427720159999
sg13
F5.0368520127430196
sg14
F1.5707963267948966
sg15
F3.1415926535897931
sg16
g7
(g9
S"'\xf3B\x9d\xa2k\x92?"
tRp326
sg18
I0
ssS'J1748-2446E'
p327
(dp328
g4
F0
sg5
F0
sg6
g7
(g9
S'\x00\x00\x00\x00\x00\x00\x00\x00'
tRp329
sg11
I0
sg12
F455.00045499999999
sg13
F4.6731378633137473
sg14
F1.5707963267948966
sg15
F3.1415926535897931
sg16
g7
(g9
S'\xa5\xa1\xe9\x82\x1b\xf0\xd9\xbf'
tRp330
sg18
I0
ssS'J0024-7204Q'
p331
(dp332
g4
F2.9168463431663967e-08
sg5
F3e-11
sg6
g7
(g9
S'@\x9b,2\x95\xd2D>'
tRp333
sg11
I0
sg12
F247.94323741907999
sg13
F0.10620887262991789
sg14
F1.5707963267948966
sg15
F3.1415926535897931
sg16
g7
(g9
S'\x8d\xab]\x85\xeb\x15\xf4\xbf'
tRp334
sg18
I0
ssS'J1905+0154A'
p335
(dp336
g4
F2.9168463431663964e-05
sg5
F9.9999999999999995e-07
sg6
g7
(g9
S'xe\x1f\xd6\xc3\xf5\x1b?'
tRp337
sg11
I0
sg12
F313.19089719999999
sg13
F5.0108065802304047
sg14
F1.5707963267948966
sg15
F3.1415926535897931
sg16
g7
(g9
S'\xb5y\x15m{\x0f\xa1?'
tRp338
sg18
I0
ssS'J1701-3006D'
p339
(dp340
g4
F1.0938173786873987e-07
sg5
F1.5e-10
sg6
g7
(g9
S'\xa4\x0f\xef)\xf0\xb3\x99>'
tRp341
sg11
I0
sg12
F292.58840407111001
sg13
F4.4681392115252612
sg14
F1.5707963267948966
sg15
F3.1415926535897931
sg16
g7
(g9
S'\xabo\x19JU\xb1\xe0\xbf'
tRp342
sg18
I0
ssS'J1857+0943'
p343
(dp344
g4
F9.4797506152907871e-10
sg5
F0
sg6
g7
(g9
S'\xe6S\x02\t\xb3\xfc\x18>'
tRp345
sg11
I0
sg12
F186.49407862023219
sg13
F4.9773352513586353
sg14
F1.5707963267948966
sg15
F3.1415926535897931
sg16
g7
(g9
S'B\xe6\xc3]\xcc\xb7\xc5?'
tRp346
sg18
I0
ssS'J1730-2304'
p347
(dp348
g4
F2.1876347573747972e-08
sg5
F2e-12
sg6
g7
(g9
S'\x11\xc2\xb7~:\x07\x9a>'
tRp349
sg11
I0
sg12
F123.110287192301
sg13
F4.5956125429951733
sg14
F1.5707963267948966
sg15
F3.1415926535897931
sg16
g7
(g9
S'\xc3\x04K\xf9h\x9b\xd9\xbf'
tRp350
sg18
I0
ssS'J1824-2452F'
p351
(dp352
g4
F0
sg5
F0
sg6
g7
(g9
S'\x00\x00\x00\x00\x00\x00\x00\x00'
tRp353
sg11
I0
sg12
F407.996736
sg13
F4.8326900874965348
sg14
F1.5707963267948966
sg15
F3.1415926535897931
sg16
g7
(g9
S'g\x8c\xc6`2\xd6\xd9\xbf'
tRp354
sg18
I0
ssS'J1824-2452G'
p355
(dp356
g4
F0
sg5
F0
sg6
g7
(g9
S'\x00\x00\x00\x00\x00\x00\x00\x00'
tRp357
sg11
I0
sg12
F169.233373
sg13
F4.8326900874965348
sg14
F1.5707963267948966
sg15
F3.1415926535897931
sg16
g7
(g9
S'g\x8c\xc6`2\xd6\xd9\xbf'
tRp358
sg18
I0
ssS'J1824-2452D'
p359
(dp360
g4
F0
sg5
F0
sg6
g7
(g9
S'\x00\x00\x00\x00\x00\x00\x00\x00'
tRp361
sg11
I0
sg12
F12.526305000000001
sg13
F4.8326900874965348
sg14
F1.5707963267948966
sg15
F3.1415926535897931
sg16
g7
(g9
S'g\x8c\xc6`2\xd6\xd9\xbf'
tRp362
sg18
I0
ssS'J1824-2452E'
p363
(dp364
g4
F0
sg5
F0
sg6
g7
(g9
S'\x00\x00\x00\x00\x00\x00\x00\x00'
tRp365
sg11
I0
sg12
F184.501845
sg13
F4.8326900874965348
sg14
F1.5707963267948966
sg15
F3.1415926535897931
sg16
g7
(g9
S'g\x8c\xc6`2\xd6\xd9\xbf'
tRp366
sg18
I0
ssS'J1824-2452B'
p367
(dp368
g4
F0
sg5
F0
sg6
g7
(g9
S'\x00\x00\x00\x00\x00\x00\x00\x00'
tRp369
sg11
I0
sg12
F152.741714
sg13
F4.8326900874965348
sg14
F1.5707963267948966
sg15
F3.1415926535897931
sg16
g7
(g9
S'g\x8c\xc6`2\xd6\xd9\xbf'
tRp370
sg18
I0
ssS'J1824-2452C'
p371
(dp372
g4
F0
sg5
F0
sg6
g7
(g9
S'\x00\x00\x00\x00\x00\x00\x00\x00'
tRp373
sg11
I0
sg12
F240.44241400000001
sg13
F4.8326900874965348
sg14
F1.5707963267948966
sg15
F3.1415926535897931
sg16
g7
(g9
S'g\x8c\xc6`2\xd6\xd9\xbf'
tRp374
sg18
I0
ssS'J1824-2452A'
p375
(dp376
g4
F1.4584231715831983e-09
sg5
F6e-10
sg6
g7
(g9
S'\xe1\xe8B\xcb\xdf;_>'
tRp377
sg11
I0
sg12
F327.40559469210001
sg13
F4.8326316018105082
sg14
F1.5707963267948966
sg15
F3.1415926535897931
sg16
g7
(g9
S'\xd3T\x19\x06:\xd6\xd9\xbf'
tRp378
sg18
I0
ssS'J1955+2908'
p379
(dp380
g4
F2.1876347573747975e-09
sg5
F1.9999999999999999e-11
sg6
g7
(g9
S'@\x9b,2\x95\xd2$>'
tRp381
sg11
I0
sg12
F163.04791306911
sg13
F5.2304798203423184
sg14
F1.5707963267948966
sg15
F3.1415926535897931
sg16
g7
(g9
S'V\x07\x85<"G\xe0?'
tRp382
sg18
I0
ssS'J1811-2405'
p383
(dp384
g4
F1.4584231715831983e-08
sg5
F1.5e-09
sg6
g7
(g9
S'\xcf\xc9\xe0.S\xc6\x96>'
tRp385
sg11
I0
sg12
F375.85601438899999
sg13
F4.7748668099821225
sg14
F1.5707963267948966
sg15
F3.1415926535897931
sg16
g7
(g9
S'\x1b\xab\x96\xeb\x98\xb5\xda\xbf'
tRp386
sg18
I0
ssS'J0635+0533'
p387
(dp388
g4
F0.00014584231715831982
sg5
F1.0000000000000001e-05
sg6
g7
(g9
S'\xa3\x96\xcfWK\x10#?'
tRp389
sg11
I0
sg12
F29.536429999999999
sg13
F1.7295440391805148
sg14
F1.5707963267948966
sg15
F3.1415926535897931
sg16
g7
(g9
S'\xde\xca\xb3\xb9\xb0\xcf\xb8?'
tRp390
sg18
I0
ssS'J0537-6910'
p391
(dp392
g4
F8.0213274437075905e-06
sg5
F1.3000000000000001e-09
sg6
g7
(g9
S'\xefE\xcc\xd6\xc6f\xc8>'
tRp393
sg11
I0
sg12
F62.026189595799998
sg13
F1.477923456125803
sg14
F1.5707963267948966
sg15
F3.1415926535897931
sg16
g7
(g9
S'\xbd\x0f\xd9\xe7h8\xf3\xbf'
tRp394
sg18
I0
ssS'J2019+2425'
p395
(dp396
g4
F2.1876347573747975e-09
sg5
F7.9999999999999998e-12
sg6
g7
(g9
S'@\x9b,2\x95\xd2$>'
tRp397
sg11
I0
sg12
F254.160345592754
sg13
F5.335783296575201
sg14
F1.5707963267948966
sg15
F3.1415926535897931
sg16
g7
(g9
S'\xad\xfd\x8f\xfcFG\xdb?'
tRp398
sg18
I0
ssS'J1824-2452H'
p399
(dp400
g4
F0
sg5
F0
sg6
g7
(g9
S'\x00\x00\x00\x00\x00\x00\x00\x00'
tRp401
sg11
I0
sg12
F216.02938
sg13
F4.8326900874965348
sg14
F1.5707963267948966
sg15
F3.1415926535897931
sg16
g7
(g9
S'g\x8c\xc6`2\xd6\xd9\xbf'
tRp402
sg18
I0
ssS'J1701-3006E'
p403
(dp404
g4
F1.2396596958457183e-07
sg5
F6.9999999999999996e-10
sg6
g7
(g9
S'kU\x1e7\xf8\xe4\xa1>'
tRp405
sg11
I0
sg12
F309.23971151249998
sg13
F4.4681180862656209
sg14
F1.5707963267948966
sg15
F3.1415926535897931
sg16
g7
(g9
S'\xb1,EA)\xb1\xe0\xbf'
tRp406
sg18
I0
ssS'J1301+0833'
p407
(dp408
g4
F0
sg5
F0
sg6
g7
(g9
S'\x00\x00\x00\x00\x00\x00\x00\x00'
tRp409
sg11
I0
sg12
F543.47826099999997
sg13
F0.056951424850323888
sg14
F1.5707963267948966
sg15
F3.1415926535897931
sg16
g7
(g9
S'd\x0f\xd9\x85\xd0_d?'
tRp410
sg18
I0
ssS'J1745-0952'
p411
(dp412
g4
F1.4584231715831983e-08
sg5
F4.9999999999999997e-12
sg6
g7
(g9
S'\x8d\xd1\t\xdfk\x85s>'
tRp413
sg11
I0
sg12
F51.609431233273
sg13
F4.6603281534077068
sg14
F1.5707963267948966
sg15
F3.1415926535897931
sg16
g7
(g9
S'\xe1\x95\xb4\xfa9%\xc2\xbf'
tRp414
sg18
I0
ssS'J0613-0200'
p415
(dp416
g4
F8.0213274437075898e-10
sg5
F3.9999999999999999e-12
sg6
g7
(g9
S'\x9a\xe2V[w\xa8 >'
tRp417
sg11
I0
sg12
F326.60056219018202
sg13
F1.6351822473049218
sg14
F1.5707963267948966
sg15
F3.1415926535897931
sg16
g7
(g9
S'.?/\x95L\xc1\xa1\xbf'
tRp418
sg18
I0
ssS'J1933-6211'
p419
(dp420
g4
F2.1876347573747972e-08
sg5
F7.9999999999999995e-11
sg6
g7
(g9
S'@\x9b,2\x95\xd2T>'
tRp421
sg11
I0
sg12
F282.21231799123001
sg13
F5.134555769794753
sg14
F1.5707963267948966
sg15
F3.1415926535897931
sg16
g7
(g9
S'\x02\xe8\xf6\xe5BB\xf1\xbf'
tRp422
sg18
I0
ssS'J2214+3000'
p423
(dp424
g4
F7.2921158579159917e-09
sg5
F4.0000000000000001e-10
sg6
g7
(g9
S'@\x9b,2\x95\xd2T>'
tRp425
sg11
I0
sg12
F320.59229255970001
sg13
F5.8394422280021256
sg14
F1.5707963267948966
sg15
F3.1415926535897931
sg16
g7
(g9
S'YH\x89\xf4\xd6\xc2\xe0?'
tRp426
sg18
I0
ssS'J1600-3053'
p427
(dp428
g4
F8.0213274437075898e-10
sg5
F1.7e-12
sg6
g7
(g9
S'@\x9b,2\x95\xd2$>'
tRp429
sg11
I0
sg12
F277.93770709849258
sg13
F4.2040436192444295
sg14
F1.5707963267948966
sg15
F3.1415926535897931
sg16
g7
(g9
S'\xc8\xe0\xe3\x9b\x10A\xe0\xbf'
tRp430
sg18
I0
ssS'J0024-7204I'
p431
(dp432
g4
F2.1876347573747972e-08
sg5
F3.9999999999999998e-11
sg6
g7
(g9
S'@\x9b,2\x95\xd24>'
tRp433
sg11
I0
sg12
F286.94469953063998
sg13
F0.10558495190499874
sg14
F1.5707963267948966
sg15
F3.1415926535897931
sg16
g7
(g9
S'}m\x12\xba\xa1\x15\xf4\xbf'
tRp434
sg18
I0
ssS'J0024-7204H'
p435
(dp436
g4
F2.1876347573747972e-08
sg5
F3.9999999999999998e-11
sg6
g7
(g9
S'@\x9b,2\x95\xd24>'
tRp437
sg11
I0
sg12
F311.49341784441998
sg13
F0.10549514220609264
sg14
F1.5707963267948966
sg15
F3.1415926535897931
sg16
g7
(g9
S'O\x1b\xaf\xd8H\x16\xf4\xbf'
tRp438
sg18
I0
ssS'J1748-2446X'
p439
(dp440
g4
F0
sg5
F0
sg6
g7
(g9
S'\x00\x00\x00\x00\x00\x00\x00\x00'
tRp441
sg11
I0
sg12
F333.41557599999999
sg13
F4.6731378633137473
sg14
F1.5707963267948966
sg15
F3.1415926535897931
sg16
g7
(g9
S'\xa5\xa1\xe9\x82\x1b\xf0\xd9\xbf'
tRp442
sg18
I0
ssS'J1748-2446Y'
p443
(dp444
g4
F0
sg5
F0
sg6
g7
(g9
S'\x00\x00\x00\x00\x00\x00\x00\x00'
tRp445
sg11
I0
sg12
F488.24310600000001
sg13
F4.6731378633137473
sg14
F1.5707963267948966
sg15
F3.1415926535897931
sg16
g7
(g9
S'\xa5\xa1\xe9\x82\x1b\xf0\xd9\xbf'
tRp446
sg18
I0
ssS'J0024-7204M'
p447
(dp448
g4
F5.8336926863327933e-08
sg5
F7.0000000000000004e-11
sg6
g7
(g9
S'\xe1\xe8B\xcb\xdf;O>'
tRp449
sg11
I0
sg12
F271.98722878893
sg13
F0.10460450505155436
sg14
F1.5707963267948966
sg15
F3.1415926535897931
sg16
g7
(g9
S'\xe1#^\x18\x9e\x14\xf4\xbf'
tRp450
sg18
I0
ssS'J0024-7204L'
p451
(dp452
g4
F7.2921158579159915e-08
sg5
F7.0000000000000004e-11
sg6
g7
(g9
S'@\x9b,2\x95\xd2T>'
tRp453
sg11
I0
sg12
F230.0877462915
sg13
F0.10528145404299227
sg14
F1.5707963267948966
sg15
F3.1415926535897931
sg16
g7
(g9
S'\x82\xd1\x86\x10J\x15\xf4\xbf'
tRp454
sg18
I0
ssS'J0024-7204O'
p455
(dp456
g4
F7.2921158579159917e-09
sg5
F3e-11
sg6
g7
(g9
S'@\x9b,2\x95\xd2$>'
tRp457
sg11
I0
sg12
F378.30878836036999
sg13
F0.10534563924677366
sg14
F1.5707963267948966
sg15
F3.1415926535897931
sg16
g7
(g9
S'3\xf7\x1f\x1eZ\x15\xf4\xbf'
tRp458
sg18
I0
ssS'J0024-7204N'
p459
(dp460
g4
F2.9168463431663967e-08
sg5
F3.9999999999999998e-11
sg6
g7
(g9
S'@\x9b,2\x95\xd2D>'
tRp461
sg11
I0
sg12
F327.44431861754998
sg13
F0.10567635857727772
sg14
F1.5707963267948966
sg15
F3.1415926535897931
sg16
g7
(g9
S'6\n\x01\x93\xd8\x15\xf4\xbf'
tRp462
sg18
I0
ssS'J1748-2446R'
p463
(dp464
g4
F0
sg5
F0
sg6
g7
(g9
S'\x00\x00\x00\x00\x00\x00\x00\x00'
tRp465
sg11
I0
sg12
F198.864879
sg13
F4.6731378633137473
sg14
F1.5707963267948966
sg15
F3.1415926535897931
sg16
g7
(g9
S'\xa5\xa1\xe9\x82\x1b\xf0\xd9\xbf'
tRp466
sg18
I0
ssS'J1748-2446S'
p467
(dp468
g4
F0
sg5
F0
sg6
g7
(g9
S'\x00\x00\x00\x00\x00\x00\x00\x00'
tRp469
sg11
I0
sg12
F163.488451
sg13
F4.6731378633137473
sg14
F1.5707963267948966
sg15
F3.1415926535897931
sg16
g7
(g9
S'\xa5\xa1\xe9\x82\x1b\xf0\xd9\xbf'
tRp470
sg18
I0
ssS'J0024-7204C'
p471
(dp472
g4
F6.5629042721243921e-09
sg5
F4.9999999999999997e-12
sg6
g7
(g9
S'\x9a\xe2V[w\xa8 >'
tRp473
sg11
I0
sg12
F173.70821896605301
sg13
F0.10430300595850456
sg14
F1.5707963267948966
sg15
F3.1415926535897931
sg16
g7
(g9
S'^\x80\xefJ\xcb\x15\xf4\xbf'
tRp474
sg18
I0
ssS'J1748-2446Q'
p475
(dp476
g4
F0
sg5
F0
sg6
g7
(g9
S'\x00\x00\x00\x00\x00\x00\x00\x00'
tRp477
sg11
I0
sg12
F355.61877700000002
sg13
F4.6731378633137473
sg14
F1.5707963267948966
sg15
F3.1415926535897931
sg16
g7
(g9
S'\xa5\xa1\xe9\x82\x1b\xf0\xd9\xbf'
tRp478
sg18
I0
ssS'J1748-2446V'
p479
(dp480
g4
F0
sg5
F0
sg6
g7
(g9
S'\x00\x00\x00\x00\x00\x00\x00\x00'
tRp481
sg11
I0
sg12
F482.50671899999998
sg13
F4.6731378633137473
sg14
F1.5707963267948966
sg15
F3.1415926535897931
sg16
g7
(g9
S'\xa5\xa1\xe9\x82\x1b\xf0\xd9\xbf'
tRp482
sg18
I0
ssS'J1748-2446W'
p483
(dp484
g4
F0
sg5
F0
sg6
g7
(g9
S'\x00\x00\x00\x00\x00\x00\x00\x00'
tRp485
sg11
I0
sg12
F237.80194900000001
sg13
F4.6731378633137473
sg14
F1.5707963267948966
sg15
F3.1415926535897931
sg16
g7
(g9
S'\xa5\xa1\xe9\x82\x1b\xf0\xd9\xbf'
tRp486
sg18
I0
ssS'J0024-7204G'
p487
(dp488
g4
F2.1876347573747972e-08
sg5
F1.9999999999999999e-11
sg6
g7
(g9
S'\x8e\x0c\xd8\xdf\xd0&->'
tRp489
sg11
I0
sg12
F247.50152509652
sg13
F0.10558682597877422
sg14
F1.5707963267948966
sg15
F3.1415926535897931
sg16
g7
(g9
S'j\x8fO\x9d\xa1\x15\xf4\xbf'
tRp490
sg18
I0
ssS'J0024-7204F'
p491
(dp492
g4
F7.2921158579159917e-09
sg5
F1.9999999999999999e-11
sg6
g7
(g9
S'@\x9b,2\x95\xd2$>'
tRp493
sg11
I0
sg12
F381.15866365655
sg13
F0.1052874992070385
sg14
F1.5707963267948966
sg15
F3.1415926535897931
sg16
g7
(g9
S'\x16u\xe4\xc6\x91\x15\xf4\xbf'
tRp494
sg18
I0
ssS'J0024-7204Y'
p495
(dp496
g4
F0
sg5
F0
sg6
g7
(g9
S'\x00\x00\x00\x00\x00\x00\x00\x00'
tRp497
sg11
I0
sg12
F455.23658599999999
sg13
F0.10541993132313411
sg14
F1.5707963267948966
sg15
F3.1415926535897931
sg16
g7
(g9
S'\xa8\xd0|\xe3_\x15\xf4\xbf'
tRp498
sg18
I0
ssS'J1748-2446K'
p499
(dp500
g4
F0
sg5
F0
sg6
g7
(g9
S'\x00\x00\x00\x00\x00\x00\x00\x00'
tRp501
sg11
I0
sg12
F336.74002000000002
sg13
F4.6731378633137473
sg14
F1.5707963267948966
sg15
F3.1415926535897931
sg16
g7
(g9
S'\xa5\xa1\xe9\x82\x1b\xf0\xd9\xbf'
tRp502
sg18
I0
ssS'J1748-2446H'
p503
(dp504
g4
F0
sg5
F0
sg6
g7
(g9
S'\x00\x00\x00\x00\x00\x00\x00\x00'
tRp505
sg11
I0
sg12
F203.00899899999999
sg13
F4.6731378633137473
sg14
F1.5707963267948966
sg15
F3.1415926535897931
sg16
g7
(g9
S'\xa5\xa1\xe9\x82\x1b\xf0\xd9\xbf'
tRp506
sg18
I0
ssS'J1748-2446I'
p507
(dp508
g4
F0
sg5
F0
sg6
g7
(g9
S'\x00\x00\x00\x00\x00\x00\x00\x00'
tRp509
sg11
I0
sg12
F104.491133
sg13
F4.6731378633137473
sg14
F1.5707963267948966
sg15
F3.1415926535897931
sg16
g7
(g9
S'\xa5\xa1\xe9\x82\x1b\xf0\xd9\xbf'
tRp510
sg18
I0
ssS'J1952+3252'
p511
(dp512
g4
F7.2921158579159915e-08
sg5
F6.9999999999999996e-10
sg6
g7
(g9
S'\x11\xc2\xb7~:\x07j>'
tRp513
sg11
I0
sg12
F25.296479255600001
sg13
F5.2195657105377755
sg14
F1.5707963267948966
sg15
F3.1415926535897931
sg16
g7
(g9
S'\xc2\x05pl\xcc\\\xe2?'
tRp514
sg18
I0
ssS'J1748-2446O'
p515
(dp516
g4
F0
sg5
F0
sg6
g7
(g9
S'\x00\x00\x00\x00\x00\x00\x00\x00'
tRp517
sg11
I0
sg12
F596.43451400000004
sg13
F4.6731378633137473
sg14
F1.5707963267948966
sg15
F3.1415926535897931
sg16
g7
(g9
S'\xa5\xa1\xe9\x82\x1b\xf0\xd9\xbf'
tRp518
sg18
I0
ssS'J1748-2446L'
p519
(dp520
g4
F0
sg5
F0
sg6
g7
(g9
S'\x00\x00\x00\x00\x00\x00\x00\x00'
tRp521
sg11
I0
sg12
F445.49383
sg13
F4.6731378633137473
sg14
F1.5707963267948966
sg15
F3.1415926535897931
sg16
g7
(g9
S'\xa5\xa1\xe9\x82\x1b\xf0\xd9\xbf'
tRp522
sg18
I0
ssS'J1748-2446M'
p523
(dp524
g4
F0
sg5
F0
sg6
g7
(g9
S'\x00\x00\x00\x00\x00\x00\x00\x00'
tRp525
sg11
I0
sg12
F280.14578799999998
sg13
F4.6731378633137473
sg14
F1.5707963267948966
sg15
F3.1415926535897931
sg16
g7
(g9
S'\xa5\xa1\xe9\x82\x1b\xf0\xd9\xbf'
tRp526
sg18
I0
ssS'J1756-2251'
p527
(dp528
g4
F1.4584231715831983e-08
sg5
F3e-11
sg6
g7
(g9
S'K\xd92\x8f\x84D\xb0>'
tRp529
sg11
I0
sg12
F35.135073419500003
sg13
F4.7111905448428173
sg14
F1.5707963267948966
sg15
F3.1415926535897931
sg16
g7
(g9
S'\xeex\x1f\x7f9\x9b\xd7\xbf'
tRp530
sg18
I0
ssS'J1748-2446C'
p531
(dp532
g4
F7.2921158579159912e-07
sg5
F1.5e-09
sg6
g7
(g9
S'\x9d\x8f\xff\xb2\xa5U\xf4>'
tRp533
sg11
I0
sg12
F118.53825305629999
sg13
F4.6731189038125169
sg14
F1.5707963267948966
sg15
F3.1415926535897931
sg16
g7
(g9
S'\xa1\xec\xbc\x85\xd2\xf0\xd9\xbf'
tRp534
sg18
I0
ssS'J0024-7204S'
p535
(dp536
g4
F2.9168463431663967e-08
sg5
F5.0000000000000002e-11
sg6
g7
(g9
S'@\x9b,2\x95\xd24>'
tRp537
sg11
I0
sg12
F353.30620938559002
sg13
F0.10529654143070231
sg14
F1.5707963267948966
sg15
F3.1415926535897931
sg16
g7
(g9
S'n\xf0e#\x94\x15\xf4\xbf'
tRp538
sg18
I0
ssS'J1701-3006A'
p539
(dp540
g4
F3.5731367703788352e-08
sg5
F1.0999999999999999e-10
sg6
g7
(g9
S'\xa8.r\xd8\xe7l\x87>'
tRp541
sg11
I0
sg12
F190.78267088868
sg13
F4.4680623759588896
sg14
F1.5707963267948966
sg15
F3.1415926535897931
sg16
g7
(g9
S'^@\xac8\xd3\xb1\xe0\xbf'
tRp542
sg18
I0
ssS'J1701-3006F'
p543
(dp544
g4
F1.0938173786873987e-07
sg5
F6e-10
sg6
g7
(g9
S'K\xd92\x8f\x84D\xa0>'
tRp545
sg11
I0
sg12
F435.78167025739998
sg13
F4.4680851842388698
sg14
F1.5707963267948966
sg15
F3.1415926535897931
sg16
g7
(g9
S'\xa8\x86Y!\xf7\xb0\xe0\xbf'
tRp546
sg18
I0
ssS'J1748-2446G'
p547
(dp548
g4
F0
sg5
F0
sg6
g7
(g9
S'\x00\x00\x00\x00\x00\x00\x00\x00'
tRp549
sg11
I0
sg12
F46.142764999999997
sg13
F4.6731378633137473
sg14
F1.5707963267948966
sg15
F3.1415926535897931
sg16
g7
(g9
S'\xa5\xa1\xe9\x82\x1b\xf0\xd9\xbf'
tRp550
sg18
I0
ssS'J0024-7204W'
p551
(dp552
g4
F7.2921158579159912e-07
sg5
F0.00019000000000000001
sg6
g7
(g9
S'\x8d\xd1\t\xdfk\x85\x93>'
tRp553
sg11
I0
sg12
F425.10789
sg13
F0.10544909978656576
sg14
F1.5707963267948966
sg15
F3.1415926535897931
sg16
g7
(g9
S'\xc2\xf1\x910r\x15\xf4\xbf'
tRp554
sg18
I0
ssS'J0024-7204V'
p555
(dp556
g4
F0
sg5
F0.050000000000000003
sg6
g7
(g9
S'\x00\x00\x00\x00\x00\x00\x00\x00'
tRp557
sg11
I0
sg12
F207.90000000000001
sg13
F0.10541993132313411
sg14
F1.5707963267948966
sg15
F3.1415926535897931
sg16
g7
(g9
S'\xa8\xd0|\xe3_\x15\xf4\xbf'
tRp558
sg18
I0
ssS'J1910+1256'
p559
(dp560
g4
F5.8336926863327923e-10
sg5
F9.9999999999999998e-13
sg6
g7
(g9
S'\xe6S\x02\t\xb3\xfc\x18>'
tRp561
sg11
I0
sg12
F200.65880537503401
sg13
F5.0322673850506447
sg14
F1.5707963267948966
sg15
F3.1415926535897931
sg16
g7
(g9
S'@q$\x8e\xbf\xe8\xcc?'
tRp562
sg18
I0
ssS'J1824-2452J'
p563
(dp564
g4
F0
sg5
F0
sg6
g7
(g9
S'\x00\x00\x00\x00\x00\x00\x00\x00'
tRp565
sg11
I0
sg12
F247.58603600000001
sg13
F4.8326900874965348
sg14
F1.5707963267948966
sg15
F3.1415926535897931
sg16
g7
(g9
S'g\x8c\xc6`2\xd6\xd9\xbf'
tRp566
sg18
I0
ssS'J2322+2057'
p567
(dp568
g4
F5.1044811005411929e-09
sg5
F1.7999999999999999e-11
sg6
g7
(g9
S'@\x9b,2\x95\xd2D>'
tRp569
sg11
I0
sg12
F207.968166802197
sg13
F6.1357580814540693
sg14
F1.5707963267948966
sg15
F3.1415926535897931
sg16
g7
(g9
S'kH\xf0?\xfcf\xd7?'
tRp570
sg18
I0
ssS'J1807-2459B'
p571
(dp572
g4
F3.8648214046954754e-09
sg5
F1.5e-11
sg6
g7
(g9
S'\xf5dO\x85\xbe\x1fv>'
tRp573
sg11
I0
sg12
F238.88143084849901
sg13
F4.7574399152740368
sg14
F1.5707963267948966
sg15
F3.1415926535897931
sg16
g7
(g9
S'\x15\x92\xd0l\xb7\xec\xdb\xbf'
tRp574
sg18
I0
ssS'J1903+0327'
p575
(dp576
g4
F7.2921158579159917e-10
sg5
F8.9999999999999996e-12
sg6
g7
(g9
S'\xec\x0f5\x07\\\xfd\xf3='
tRp577
sg11
I0
sg12
F465.13523833921698
sg13
F5.0013555031626424
sg14
F1.5707963267948966
sg15
F3.1415926535897931
sg16
g7
(g9
S'\xb3S\xd0\xb6\x8e\xe0\xae?'
tRp578
sg18
I0
ssS'J0534+2200'
p579
(dp580
g4
F3.6460579289579956e-07
sg5
F9.9999999999999995e-08
sg6
g7
(g9
S'\x8d\xd1\t\xdfk\x85\x93>'
tRp581
sg11
F2.16420827
sg12
F30.225436999999999
sg13
F1.4636715261296163
sg14
F0.00175
sg15
F0.019198621799999999
sg16
g7
(g9
S'\x08\xb20\xbd#\x97\xd8?'
tRp582
sg18
F1.06988683
ssS'J1953+1846A'
p583
(dp584
g4
F0
sg5
F0.050000000000000003
sg6
g7
(g9
S'\x00\x00\x00\x00\x00\x00\x00\x00'
tRp585
sg11
I0
sg12
F204.58000000000001
sg13
F5.2230509043909077
sg14
F1.5707963267948966
sg15
F3.1415926535897931
sg16
g7
(g9
S'\x12">\xe6\xc0\xf9\xd4?'
tRp586
sg18
I0
ssS'J2140-2310A'
p587
(dp588
g4
F3.3543732946413562e-08
sg5
F6e-11
sg6
g7
(g9
S'q\xafo\xe6T?i>'
tRp589
sg11
I0
sg12
F90.749626746700002
sg13
F5.6894842479457131
sg14
F1.5707963267948966
sg15
F3.1415926535897931
sg16
g7
(g9
S'\xa2\n\xb6\x9al}\xd9\xbf'
tRp590
sg18
I0
ssS'J1905+0400'
p591
(dp592
g4
F1.1667385372665585e-09
sg5
F1.6e-11
sg6
g7
(g9
S'\xe6S\x02\t\xb3\xfc(>'
tRp593
sg11
I0
sg12
F264.24234614348302
sg13
F5.0117453260984197
sg14
F1.5707963267948966
sg15
F3.1415926535897931
sg16
g7
(g9
S'71\x8f\xd6\xbb\xe2\xb1?'
tRp594
sg18
I0
ssS'J2317+1439'
p595
(dp596
g4
F5.1044811005411929e-09
sg5
F1.6999999999999999e-11
sg6
g7
(g9
S'@\x9b,2\x95\xd2D>'
tRp597
sg11
I0
sg12
F290.25460826668098
sg13
F6.1129251016188455
sg14
F1.5707963267948966
sg15
F3.1415926535897931
sg16
g7
(g9
S'I,\xef\x84\xb7_\xd0?'
tRp598
sg18
I0
ssS'J1640+2224'
p599
(dp600
g4
F7.2921158579159917e-10
sg5
F2e-12
sg6
g7
(g9
S'\xe6S\x02\t\xb3\xfc\x18>'
tRp601
sg11
I0
sg12
F316.12398431323811
sg13
F4.3764903831733228
sg14
F1.5707963267948966
sg15
F3.1415926535897931
sg16
g7
(g9
S'>s\x81\xb4\x18\x06\xd9?'
tRp602
sg18
I0
ssS'J1913+1011'
p603
(dp604
g4
F2.1876347573747973e-07
sg5
F1.0999999999999999e-10
sg6
g7
(g9
S'\xcf\xc9\xe0.S\xc6\x96>'
tRp605
sg11
I0
sg12
F27.848472053710001
sg13
F5.0461690397929413
sg14
F1.5707963267948966
sg15
F3.1415926535897931
sg16
g7
(g9
S'?\xa6\xb9\x14\x98\xc3\xc6?'
tRp606
sg18
I0
ssS'J0614-3329'
p607
(dp608
g4
F2.1876347573747972e-08
sg5
F8.9999999999999999e-10
sg6
g7
(g9
S'@\x9b,2\x95\xd2T>'
tRp609
sg11
I0
sg12
F317.5944552995
sg13
F1.6371053720810937
sg14
F1.5707963267948966
sg15
F3.1415926535897931
sg16
g7
(g9
S'\t\xe8\xaa\x8a\xff&\xe2\xbf'
tRp610
sg18
I0
ssS'J2022+3842'
p611
(dp612
g4
F4.3752695147495946e-07
sg5
F1.4999999999999999e-08
sg6
g7
(g9
S'\xcf\xc9\xe0.S\xc6\x96>'
tRp613
sg11
I0
sg12
F41.173008965999998
sg13
F5.3481609340324283
sg14
F1.5707963267948966
sg15
F3.1415926535897931
sg16
g7
(g9
S"\x1f\xbe'\x1a\xd0\x9d\xe5?"
tRp614
sg18
I0
ssS'J1629-6902'
p615
(dp616
g4
F2.9168463431663967e-08
sg5
F6e-11
sg6
g7
(g9
S'\xe1\xe8B\xcb\xdf;O>'
tRp617
sg11
I0
sg12
F166.64990604074001
sg13
F4.3277811124007837
sg14
F1.5707963267948966
sg15
F3.1415926535897931
sg16
g7
(g9
S'Z\x84p\xdboA\xf3\xbf'
tRp618
sg18
I0
ssS'J1802-2124'
p619
(dp620
g4
F6.5629042721243925e-10
sg5
F2e-12
sg6
g7
(g9
S'\xe1\xe8B\xcb\xdf;O>'
tRp621
sg11
I0
sg12
F79.066424229950002
sg13
F4.7344306913426681
sg14
F1.5707963267948966
sg15
F3.1415926535897931
sg16
g7
(g9
S'\xc8h\x95\xbd`\x02\xd7\xbf'
tRp622
sg18
I0
ssS'J1810-2005'
p623
(dp624
g4
F4.3752695147495945e-08
sg5
F7.0000000000000001e-12
sg6
g7
(g9
S'\xcf\xc9\xe0.S\xc6\xa6>'
tRp625
sg11
I0
sg12
F30.467142155106
sg13
F4.773345528771844
sg14
F1.5707963267948966
sg15
F3.1415926535897931
sg16
g7
(g9
S'T\x92\x05\xc2\x9b>\xd6\xbf'
tRp626
sg18
I0
ssS'J0030+0451'
p627
(dp628
g4
F3.6460579289579957e-08
sg5
F8.9999999999999996e-12
sg6
g7
(g9
S'\x11\xc2\xb7~:\x07z>'
tRp629
sg11
I0
sg12
F205.530699274922
sg13
F0.13325833469866177
sg14
F1.5707963267948966
sg15
F3.1415926535897931
sg16
g7
(g9
S'\xffP\x81\x06&\xb8\xb5?'
tRp630
sg18
I0
ssS'J0737-3039A'
p631
(dp632
g4
F1.8959501230581574e-09
sg5
F2e-12
sg6
g7
(g9
S'\x9a\xe2V[w\xa8\x00>'
tRp633
sg11
I0
sg12
F44.054069392743997
sg13
F2.0032352623293948
sg14
F1.5707963267948966
sg15
F3.1415926535897931
sg16
g7
(g9
S'QP\xb6\xd4\xc4b\xe0\xbf'
tRp634
sg18
I0
ssS'J1342+2822A'
p635
(dp636
g4
F0
sg5
F0.16
sg6
g7
(g9
S'\x00\x00\x00\x00\x00\x00\x00\x00'
tRp637
sg11
I0
sg12
F392.93000000000001
sg13
F3.5972736738685374
sg14
F1.5707963267948966
sg15
F3.1415926535897931
sg16
g7
(g9
S'\xd3\xe8)\xef\x1f\xb2\xdf?'
tRp638
sg18
I0
ssS'J1342+2822B'
p639
(dp640
g4
F7.2921158579159917e-09
sg5
F1.8e-10
sg6
g7
(g9
S'@\x9b,2\x95\xd2D>'
tRp641
sg11
I0
sg12
F418.51147259915001
sg13
F3.5972800253014494
sg14
F1.5707963267948966
sg15
F3.1415926535897931
sg16
g7
(g9
S'\xf7\x8bVz\xc5\xb2\xdf?'
tRp642
sg18
I0
ssS'J1342+2822C'
p643
(dp644
g4
F0
sg5
F0.29999999999999999
sg6
g7
(g9
S'\x00\x00\x00\x00\x00\x00\x00\x00'
tRp645
sg11
I0
sg12
F461.69999999999999
sg13
F3.5972736738685374
sg14
F1.5707963267948966
sg15
F3.1415926535897931
sg16
g7
(g9
S'\xd3\xe8)\xef\x1f\xb2\xdf?'
tRp646
sg18
I0
ssS'J1342+2822D'
p647
(dp648
g4
F5.1044811005411937e-05
sg5
F1.9999999999999999e-06
sg6
g7
(g9
S'\x9d\x8f\xff\xb2\xa5U\x14?'
tRp649
sg11
I0
sg12
F183.72305040000001
sg13
F3.5972153369416739
sg14
F1.5707963267948966
sg15
F3.1415926535897931
sg16
g7
(g9
S'\xd1\xb4\xc0Eq\xb2\xdf?'
tRp650
sg18
I0
ssS'J1614-2230'
p651
(dp652
g4
F6.7816677478618712e-09
sg5
F7.0000000000000004e-11
sg6
g7
(g9
S'ccTi\xe4zb>'
tRp653
sg11
I0
sg12
F317.37894216180001
sg13
F4.2641745737441008
sg14
F1.5707963267948966
sg15
F3.1415926535897931
sg16
g7
(g9
S'l\xc4}\x82\x8e\x01\xd8\xbf'
tRp654
sg18
I0
ssS'J1022+1001'
p655
(dp656
g4
F2.1876347573747973e-07
sg5
F4.0000000000000001e-13
sg6
g7
(g9
S'\xadM\xf5\x86\xdf%\xa5>'
tRp657
sg11
I0
sg12
F60.7794479762157
sg13
F2.7256472841353148
sg14
F1.5707963267948966
sg15
F3.1415926535897931
sg16
g7
(g9
S'\x9fZy$\x02i\xc6?'
tRp658
sg18
I0
ssS'J1738+0333'
p659
(dp660
g4
F3.6460579289579958e-09
sg5
F1.7999999999999999e-11
sg6
g7
(g9
S'@\x9b,2\x95\xd2D>'
tRp661
sg11
I0
sg12
F170.937372689743
sg13
F4.6329702034820759
sg14
F1.5707963267948966
sg15
F3.1415926535897931
sg16
g7
(g9
S'hO5\xa0\x00\xc0\xaf?'
tRp662
sg18
I0
ssS'J0900-3144'
p663
(dp664
g4
F9.4797506152907871e-09
sg5
F9.9999999999999994e-12
sg6
g7
(g9
S'\xe1\xe8B\xcb\xdf;O>'
tRp665
sg11
I0
sg12
F90.011843383452998
sg13
F2.3658506883173525
sg14
F1.5707963267948966
sg15
F3.1415926535897931
sg16
g7
(g9
S'\x1a\r\xce\x9b8\xe6\xe0\xbf'
tRp666
sg18
I0
ssS'J1801-3210'
p667
(dp668
g4
F1.4584231715831983e-08
sg5
F4.0000000000000001e-10
sg6
g7
(g9
S'\x11\xc2\xb7~:\x07j>'
tRp669
sg11
I0
sg12
F134.16363858
sg13
F4.7315542013187679
sg14
F1.5707963267948966
sg15
F3.1415926535897931
sg16
g7
(g9
S'\xa5^u\x14P\xc5\xe1\xbf'
tRp670
sg18
I0
ssS'J0024-7204J'
p671
(dp672
g4
F2.1876347573747975e-09
sg5
F6.0000000000000003e-12
sg6
g7
(g9
S'\x9a\xe2V[w\xa8\x00>'
tRp673
sg11
I0
sg12
F476.04685844060702
sg13
F0.10496325162935832
sg14
F1.5707963267948966
sg15
F3.1415926535897931
sg16
g7
(g9
S'\xdf\xe2\xa9\x88q\x16\xf4\xbf'
tRp674
sg18
I0
ssS'J1603-7202'
p675
(dp676
g4
F2.9168463431663967e-09
sg5
F4.9999999999999999e-13
sg6
g7
(g9
S'\xe6S\x02\t\xb3\xfc\x18>'
tRp677
sg11
I0
sg12
F67.376581140891105
sg13
F4.2159863550577326
sg14
F1.5707963267948966
sg15
F3.1415926535897931
sg16
g7
(g9
S"\x9a\x1d\xfb2'\x18\xf4\xbf"
tRp678
sg18
I0
ssS'J1643-1224'
p679
(dp680
g4
F5.8336926863327933e-09
sg5
F7.0000000000000001e-12
sg6
g7
(g9
S'\x11\xc2\xb7~:\x07Z>'
tRp681
sg11
I0
sg12
F216.37333755161399
sg13
F4.3911776621847416
sg14
F1.5707963267948966
sg15
F3.1415926535897931
sg16
g7
(g9
S'q\xe7\xfb\xb7\xd1\xe0\xc9\xbf'
tRp682
sg18
I0
ssS'J1709+2313'
p683
(dp684
g4
F4.3752695147495946e-07
sg5
F9.9999999999999994e-12
sg6
g7
(g9
S'\x11\xc2\xb7~:\x07j>'
tRp685
sg11
I0
sg12
F215.92693118725001
sg13
F4.5025746900278234
sg14
F1.5707963267948966
sg15
F3.1415926535897931
sg16
g7
(g9
S'\xc5\xddz\xcf \xf1\xd9?'
tRp686
sg18
I0
ssS'J1157-5112'
p687
(dp688
g4
F7.2921158579159915e-08
sg5
F7.0000000000000004e-11
sg6
g7
(g9
S'\x8d\xd1\t\xdfk\x85\x83>'
tRp689
sg11
I0
sg12
F22.941448320669998
sg13
F3.1376637162564167
sg14
F1.5707963267948966
sg15
F3.1415926535897931
sg16
g7
(g9
S'N,+W\x05]\xec\xbf'
tRp690
sg18
I0
ssS'J1614-23'
p691
(dp692
g4
F0
sg5
F0
sg6
g7
(g9
S'\x00\x00\x00\x00\x00\x00\x00\x00'
tRp693
sg11
I0
sg12
F29.850746000000001
sg13
F0.071025208456101746
sg14
F1.5707963267948966
sg15
F3.1415926535897931
sg16
g7
(g9
S'1*\xdb +\x1b{\xbf'
tRp694
sg18
I0
ssS'J1841+0130'
p695
(dp696
g4
F5.8336926863327932e-07
sg5
F4.0000000000000001e-10
sg6
g7
(g9
S'\xefE\xcc\xd6\xc6f\xb8>'
tRp697
sg11
I0
sg12
F33.587732040699997
sg13
F4.9059722787318201
sg14
F1.5707963267948966
sg15
F3.1415926535897931
sg16
g7
(g9
S'\xf8\xfc\x80jd\xe4\x9a?'
tRp698
sg18
I0
ssS'J2241-5236'
p699
(dp700
g4
F3.6460579289579958e-09
sg5
F3e-10
sg6
g7
(g9
S'\xe6S\x02\t\xb3\xfc\x18>'
tRp701
sg11
I0
sg12
F457.3101497559
sg13
F5.9578058472759574
sg14
F1.5707963267948966
sg15
F3.1415926535897931
sg16
g7
(g9
S'\x95\x8c\xd7"\x99\xb3\xec\xbf'
tRp702
sg18
I0
ssS'J1803-30'
p703
(dp704
g4
F0
sg5
F0
sg6
g7
(g9
S'\x00\x00\x00\x00\x00\x00\x00\x00'
tRp705
sg11
I0
sg12
F140.82523599999999
sg13
F4.7409034959813603
sg14
F1.5707963267948966
sg15
F3.1415926535897931
sg16
g7
(g9
S'\x80\xcc\xb1\xcfy\xbc\xe0\xbf'
tRp706
sg18
I0
ssS'J0751+1807'
p707
(dp708
g4
F6.8545889064410309e-09
sg5
F2e-12
sg6
g7
(g9
S'ccTi\xe4zb>'
tRp709
sg11
I0
sg12
F287.45785863010599
sg13
F2.0614196834130145
sg14
F1.5707963267948966
sg15
F3.1415926535897931
sg16
g7
(g9
S'c\x89\x10\xf4\x9c?\xd4?'
tRp710
sg18
I0
ssS'J2124-3358'
p711
(dp712
g4
F2.1876347573747975e-09
sg5
F2e-12
sg6
g7
(g9
S'\x8e\x0c\xd8\xdf\xd0&->'
tRp713
sg11
I0
sg12
F202.79389387949601
sg13
F5.6210439027785961
sg14
F1.5707963267948966
sg15
F3.1415926535897931
sg16
g7
(g9
S'\x89\xbd\x9d\x91D\xe2\xe1\xbf'
tRp714
sg18
I0
ssS'J1918-0642'
p715
(dp716
g4
F9.4797506152907871e-10
sg5
F5.9999999999999997e-13
sg6
g7
(g9
S'\xe6S\x02\t\xb3\xfc(>'
tRp717
sg11
I0
sg12
F130.7895141841235
sg13
F5.0700648856210933
sg14
F1.5707963267948966
sg15
F3.1415926535897931
sg16
g7
(g9
S'\xb1w\xa9\xd8)\xa3\xb7\xbf'
tRp718
sg18
I0
ssS'J1518+0204E'
p719
(dp720
g4
F0
sg5
F0.10000000000000001
sg6
g7
(g9
S'\x00\x00\x00\x00\x00\x00\x00\x00'
tRp721
sg11
I0
sg12
F314.26999999999998
sg13
F4.0189767339318196
sg14
F1.5707963267948966
sg15
F3.1415926535897931
sg16
g7
(g9
S'#\x89e9\xa4\x9c\xa2?'
tRp722
sg18
I0
ssS'J1518+0204D'
p723
(dp724
g4
F0
sg5
F0.12
sg6
g7
(g9
S'\x00\x00\x00\x00\x00\x00\x00\x00'
tRp725
sg11
I0
sg12
F334.67000000000002
sg13
F4.0189767339318196
sg14
F1.5707963267948966
sg15
F3.1415926535897931
sg16
g7
(g9
S'#\x89e9\xa4\x9c\xa2?'
tRp726
sg18
I0
ssS'J1518+0204C'
p727
(dp728
g4
F0
sg5
F0.17000000000000001
sg6
g7
(g9
S'\x00\x00\x00\x00\x00\x00\x00\x00'
tRp729
sg11
I0
sg12
F402.57999999999998
sg13
F4.0189767339318196
sg14
F1.5707963267948966
sg15
F3.1415926535897931
sg16
g7
(g9
S'#\x89e9\xa4\x9c\xa2?'
tRp730
sg18
I0
ssS'J1518+0204B'
p731
(dp732
g4
F2.1876347573747973e-07
sg5
F4.0000000000000001e-10
sg6
g7
(g9
S'K\xd92\x8f\x84D\x90>'
tRp733
sg11
I0
sg12
F125.834587554
sg13
F4.0187913683467107
sg14
F1.5707963267948966
sg15
F3.1415926535897931
sg16
g7
(g9
S'#u\xa8.\xbe\xa7\xa2?'
tRp734
sg18
I0
ssS'J1518+0204A'
p735
(dp736
g4
F4.3752695147495945e-08
sg5
F7.0000000000000004e-11
sg6
g7
(g9
S'\x8d\xd1\t\xdfk\x85\x83>'
tRp737
sg11
I0
sg12
F180.06362469727
sg13
F4.0189269725332046
sg14
F1.5707963267948966
sg15
F3.1415926535897931
sg16
g7
(g9
S'U\xd4hPk\xaf\xa2?'
tRp738
sg18
I0
ssS'J0711-6830'
p739
(dp740
g4
F1.0938173786873986e-08
sg5
F3.9999999999999999e-12
sg6
g7
(g9
S'\x8e\x0c\xd8\xdf\xd0&->'
tRp741
sg11
I0
sg12
F182.11723486934699
sg13
F1.8896953682887456
sg14
F1.5707963267948966
sg15
F3.1415926535897931
sg16
g7
(g9
S'\x00\xcam\x85\x8a\xd8\xf2\xbf'
tRp742
sg18
I0
ssS'J1012+5307'
p743
(dp744
g4
F2.1876347573747975e-09
sg5
F3.9999999999999999e-12
sg6
g7
(g9
S'\x9a\xe2V[w\xa8 >'
tRp745
sg11
I0
sg12
F190.267837621903
sg13
F2.6801029671663401
sg14
F1.5707963267948966
sg15
F3.1415926535897931
sg16
g7
(g9
S'g\xba\xeb\x8f\x95\xaa\xed?'
tRp746
sg18
I0
ssS'J1216-6410'
p747
(dp748
g4
F6.5629042721243914e-08
sg5
F1.7000000000000001e-10
sg6
g7
(g9
S'@\x9b,2\x95\xd2d>'
tRp749
sg11
I0
sg12
F282.53570587239
sg13
F3.2207335749912094
sg14
F1.5707963267948966
sg15
F3.1415926535897931
sg16
g7
(g9
S'Wmh\x8c-\xd3\xf1\xbf'
tRp750
sg18
I0
ssS'J1748-2446Z'
p751
(dp752
g4
F0
sg5
F0
sg6
g7
(g9
S'\x00\x00\x00\x00\x00\x00\x00\x00'
tRp753
sg11
I0
sg12
F406.07652899999999
sg13
F4.6731378633137473
sg14
F1.5707963267948966
sg15
F3.1415926535897931
sg16
g7
(g9
S'\xa5\xa1\xe9\x82\x1b\xf0\xd9\xbf'
tRp754
sg18
I0
ssS'J1823-3021A'
p755
(dp756
g4
F2.6251617088497568e-08
sg5
F1.0999999999999999e-10
sg6
g7
(g9
S'xU\xfd$\x8d\xa1\x8c>'
tRp757
sg11
I0
sg12
F183.82338873034999
sg13
F4.828874634445409
sg14
F1.5707963267948966
sg15
F3.1415926535897931
sg16
g7
(g9
S'\x06\xf6\xe5v\xaf\x8d\xe0\xbf'
tRp758
sg18
I0
ssS'J1125-6014'
p759
(dp760
g4
F2.9168463431663967e-08
sg5
F1.0999999999999999e-10
sg6
g7
(g9
S'@\x9b,2\x95\xd2T>'
tRp761
sg11
I0
sg12
F380.17309999077003
sg13
F3.0010861781378964
sg14
F1.5707963267948966
sg15
F3.1415926535897931
sg16
g7
(g9
S'\xcf\xeb\x85^\x82\xb0\xf0\xbf'
tRp762
sg18
I0
ssS'J2017+0603'
p763
(dp764
g4
F7.2921158579159917e-09
sg5
F3e-10
sg6
g7
(g9
S'@\x9b,2\x95\xd2T>'
tRp765
sg11
I0
sg12
F345.27813660390001
sg13
F5.3263586306031012
sg14
F1.5707963267948966
sg15
F3.1415926535897931
sg16
g7
(g9
S'\x16\xf3\x82\xce\xdf\t\xbb?'
tRp766
sg18
I0
ssS'J1748-2446ah'
p767
(dp768
g4
F0
sg5
F0
sg6
g7
(g9
S'\x00\x00\x00\x00\x00\x00\x00\x00'
tRp769
sg11
I0
sg12
F201.403784
sg13
F4.6731378633137473
sg14
F1.5707963267948966
sg15
F3.1415926535897931
sg16
g7
(g9
S'\xa5\xa1\xe9\x82\x1b\xf0\xd9\xbf'
tRp770
sg18
I0
ssS'J1740-5340A'
p771
(dp772
g4
F2.9168463431663966e-07
sg5
F8.0000000000000003e-10
sg6
g7
(g9
S'K\xd92\x8f\x84D\xa0>'
tRp773
sg11
I0
sg12
F273.94791761559998
sg13
F4.6410371671744564
sg14
F1.5707963267948966
sg15
F3.1415926535897931
sg16
g7
(g9
S'\xf19\xa5\xac\xdb8\xed\xbf'
tRp774
sg18
I0
ssS'J1537+1155'
p775
(dp776
g4
F2.1876347573747972e-10
sg5
F2.9999999999999998e-14
sg6
g7
(g9
S'==\x13\xb3@R\xf7='
tRp777
sg11
I0
sg12
F26.382133035721829
sg13
F4.1003538536133526
sg14
F1.5707963267948966
sg15
F3.1415926535897931
sg16
g7
(g9
S'\xb9\x04\xe7u\x14\xa8\xca?'
tRp778
sg18
I0
ssS'J1911+1347'
p779
(dp780
g4
F2.1876347573747972e-08
sg5
F7.0000000000000004e-11
sg6
g7
(g9
S'\xd8\x07\xe7\x8bB8b>'
tRp781
sg11
I0
sg12
F216.17123085388999
sg13
F5.0399608021597988
sg14
F1.5707963267948966
sg15
F3.1415926535897931
sg16
g7
(g9
S'y\x1dd)I\xd0\xce?'
tRp782
sg18
I0
ssS'J1435-6100'
p783
(dp784
g4
F3.6460579289579957e-08
sg5
F7.9999999999999995e-11
sg6
g7
(g9
S'\xd8\x07\xe7\x8bB8b>'
tRp785
sg11
I0
sg12
F106.97507197376
sg13
F3.8298394112778258
sg14
F1.5707963267948966
sg15
F3.1415926535897931
sg16
g7
(g9
S'\xab4\x17\xb2\xa8\x07\xf1\xbf'
tRp786
sg18
I0
ssS'J1829+2456'
p787
(dp788
g4
F1.4584231715831983e-08
sg5
F3e-11
sg6
g7
(g9
S'\xe1\xe8B\xcb\xdf;O>'
tRp789
sg11
I0
sg12
F24.384401411060001
sg13
F4.8547018350775328
sg14
F1.5707963267948966
sg15
F3.1415926535897931
sg16
g7
(g9
S'\xc0z\xa0\x04@\xdb\xdb?'
tRp790
sg18
I0
ssS'J1748-2446ae'
p791
(dp792
g4
F0
sg5
F0
sg6
g7
(g9
S'\x00\x00\x00\x00\x00\x00\x00\x00'
tRp793
sg11
I0
sg12
F273.32934299999999
sg13
F4.6731378633137473
sg14
F1.5707963267948966
sg15
F3.1415926535897931
sg16
g7
(g9
S'\xa5\xa1\xe9\x82\x1b\xf0\xd9\xbf'
tRp794
sg18
I0
ssS'J1420-5625'
p795
(dp796
g4
F2.1876347573747973e-07
sg5
F1e-10
sg6
g7
(g9
S'\x8d\xd1\t\xdfk\x85\x83>'
tRp797
sg11
I0
sg12
F29.310788309229999
sg13
F3.7629550672722205
sg14
F1.5707963267948966
sg15
F3.1415926535897931
sg16
g7
(g9
S'\xfaoQ}\xf9\x08\xef\xbf'
tRp798
sg18
I0
ssS'J1751-2857'
p799
(dp800
g4
F1.4584231715831983e-08
sg5
F3.9999999999999998e-11
sg6
g7
(g9
S'\x8d\xd1\t\xdfk\x85\x83>'
tRp801
sg11
I0
sg12
F255.43611500047999
sg13
F4.688297916958299
sg14
F1.5707963267948966
sg15
F3.1415926535897931
sg16
g7
(g9
S'\x96A\xd4\xdba3\xde\xbf'
tRp802
sg18
I0
ssS'J1454-5846'
p803
(dp804
g4
F2.1876347573747973e-07
sg5
F5.0000000000000002e-11
sg6
g7
(g9
S'\x8d\xd1\t\xdfk\x85\x83>'
tRp805
sg11
I0
sg12
F22.10004678013
sg13
F3.9122863701839194
sg14
F1.5707963267948966
sg15
F3.1415926535897931
sg16
g7
(g9
S'\xbc\x07\xe5\x1e\xb1\xf5\xef\xbf'
tRp806
sg18
I0
ssS'J1910-5959E'
p807
(dp808
g4
F4.3752695147495945e-08
sg5
F1e-10
sg6
g7
(g9
S'\xd8\x07\xe7\x8bB8b>'
tRp809
sg11
I0
sg12
F218.73385758998
sg13
F5.035363305414279
sg14
F1.5707963267948966
sg15
F3.1415926535897931
sg16
g7
(g9
S'\xb5v\xc4k~3\xf0\xbf'
tRp810
sg18
I0
ssS'J1910-5959D'
p811
(dp812
g4
F3.6460579289579957e-08
sg5
F5.0000000000000002e-11
sg6
g7
(g9
S'\x11\xc2\xb7~:\x07Z>'
tRp813
sg11
I0
sg12
F110.67719198432
sg13
F5.0353821992864667
sg14
F1.5707963267948966
sg15
F3.1415926535897931
sg16
g7
(g9
S'(\xe9`-m3\xf0\xbf'
tRp814
sg18
I0
ssS'J1910-5959C'
p815
(dp816
g4
F2.9168463431663967e-08
sg5
F6e-11
sg6
g7
(g9
S'@\x9b,2\x95\xd2T>'
tRp817
sg11
I0
sg12
F189.48987107047
sg13
F5.0363403030969227
sg14
F1.5707963267948966
sg15
F3.1415926535897931
sg16
g7
(g9
S'\xd9c\xe4\xb9"\xc0\xf0\xbf'
tRp818
sg18
I0
ssS'J1748-2446ai'
p819
(dp820
g4
F0
sg5
F0
sg6
g7
(g9
S'\x00\x00\x00\x00\x00\x00\x00\x00'
tRp821
sg11
I0
sg12
F47.106749999999998
sg13
F4.6731378633137473
sg14
F1.5707963267948966
sg15
F3.1415926535897931
sg16
g7
(g9
S'\xa5\xa1\xe9\x82\x1b\xf0\xd9\xbf'
tRp822
sg18
I0
ssS'J1910-5959A'
p823
(dp824
g4
F2.1876347573747975e-09
sg5
F8.9999999999999996e-12
sg6
g7
(g9
S'\xe6S\x02\t\xb3\xfc\x18>'
tRp825
sg11
I0
sg12
F306.16744583514799
sg13
F5.0390530008229533
sg14
F1.5707963267948966
sg15
F3.1415926535897931
sg16
g7
(g9
S'\xa0Y\xc5H14\xf0\xbf'
tRp826
sg18
I0
ssS'J1748-2446ad'
p827
(dp828
g4
F0
sg5
F4.0000000000000003e-05
sg6
g7
(g9
S'\x00\x00\x00\x00\x00\x00\x00\x00'
tRp829
sg11
I0
sg12
F716.35555999999997
sg13
F4.6731378633137473
sg14
F1.5707963267948966
sg15
F3.1415926535897931
sg16
g7
(g9
S'\xa5\xa1\xe9\x82\x1b\xf0\xd9\xbf'
tRp830
sg18
I0
ssS'J1518+4904'
p831
(dp832
g4
F1.1667385372665585e-09
sg5
F2.9999999999999998e-13
sg6
g7
(g9
S'\x91j\xf1^%\xa7\n>'
tRp833
sg11
I0
sg12
F24.4289793809236
sg13
F4.0177224232084763
sg14
F1.5707963267948966
sg15
F3.1415926535897931
sg16
g7
(g9
S'|\xee\x08\x8c\xc8h\xeb?'
tRp834
sg18
I0
ssS'J1748-2446af'
p835
(dp836
g4
F0
sg5
F0
sg6
g7
(g9
S'\x00\x00\x00\x00\x00\x00\x00\x00'
tRp837
sg11
I0
sg12
F302.632296
sg13
F4.6731378633137473
sg14
F1.5707963267948966
sg15
F3.1415926535897931
sg16
g7
(g9
S'\xa5\xa1\xe9\x82\x1b\xf0\xd9\xbf'
tRp838
sg18
I0
ssS'J1748-2446ag'
p839
(dp840
g4
F0
sg5
F0
sg6
g7
(g9
S'\x00\x00\x00\x00\x00\x00\x00\x00'
tRp841
sg11
I0
sg12
F224.81862799999999
sg13
F4.6731378633137473
sg14
F1.5707963267948966
sg15
F3.1415926535897931
sg16
g7
(g9
S'\xa5\xa1\xe9\x82\x1b\xf0\xd9\xbf'
tRp842
sg18
I0
ssS'J1959+2048'
p843
(dp844
g4
F3.6460579289579958e-09
sg5
F1.2000000000000001e-11
sg6
g7
(g9
S'\xe6S\x02\t\xb3\xfc(>'
tRp845
sg11
I0
sg12
F622.12203051192705
sg13
F5.2486294504351809
sg14
F1.5707963267948966
sg15
F3.1415926535897931
sg16
g7
(g9
S'\x81\xca\xdbS\x0f=\xd7?'
tRp846
sg18
I0
ssS'J1748-2446aa'
p847
(dp848
g4
F0
sg5
F0
sg6
g7
(g9
S'\x00\x00\x00\x00\x00\x00\x00\x00'
tRp849
sg11
I0
sg12
F172.77005700000001
sg13
F4.6731378633137473
sg14
F1.5707963267948966
sg15
F3.1415926535897931
sg16
g7
(g9
S'\xa5\xa1\xe9\x82\x1b\xf0\xd9\xbf'
tRp850
sg18
I0
ssS'J1748-2446ab'
p851
(dp852
g4
F0
sg5
F0
sg6
g7
(g9
S'\x00\x00\x00\x00\x00\x00\x00\x00'
tRp853
sg11
I0
sg12
F195.32356300000001
sg13
F4.6731378633137473
sg14
F1.5707963267948966
sg15
F3.1415926535897931
sg16
g7
(g9
S'\xa5\xa1\xe9\x82\x1b\xf0\xd9\xbf'
tRp854
sg18
I0
ssS'J1748-2446ac'
p855
(dp856
g4
F0
sg5
F0
sg6
g7
(g9
S'\x00\x00\x00\x00\x00\x00\x00\x00'
tRp857
sg11
I0
sg12
F196.58299400000001
sg13
F4.6731378633137473
sg14
F1.5707963267948966
sg15
F3.1415926535897931
sg16
g7
(g9
S'\xa5\xa1\xe9\x82\x1b\xf0\xd9\xbf'
tRp858
sg18
I0
ss.